

Microchip MPLAB XC8 Assembler V2.41 build 20230208172133 
                                                                                               Sun Jul 23 04:04:07 2023

Microchip MPLAB XC8 C Compiler v2.41 (Free license) build 20230208172133 Og1 
     1                           	processor	18F4620
     2                           	fnconf	rparam,??,?,0
     3                           	pagewidth 120
     4                           	opt	flic
     5                           	psect	idataCOMRAM,global,class=CODE,delta=1,noexec
     6                           	psect	idataBANK0,global,class=CODE,delta=1,noexec
     7                           	psect	smallconst,global,reloc=2,class=SMALLCONST,delta=1,noexec
     8                           	psect	cinit,global,reloc=2,class=CODE,delta=1
     9                           	psect	bssCOMRAM,global,class=COMRAM,space=1,delta=1,lowdata,noexec
    10                           	psect	dataCOMRAM,global,class=COMRAM,space=1,delta=1,lowdata,noexec
    11                           	psect	dataBANK0,global,class=BANK0,space=1,delta=1,lowdata,noexec
    12                           	psect	cstackBANK0,global,class=BANK0,space=1,delta=1,lowdata,noexec
    13                           	psect	cstackCOMRAM,global,class=COMRAM,space=1,delta=1,lowdata,noexec
    14                           	psect	text0,global,reloc=2,class=CODE,delta=1
    15                           	psect	text1,global,reloc=2,class=CODE,delta=1
    16                           	psect	text2,global,reloc=2,class=CODE,delta=1
    17                           	psect	text3,global,reloc=2,class=CODE,delta=1
    18                           	psect	text4,global,reloc=2,class=CODE,delta=1
    19                           	psect	text5,global,reloc=2,class=CODE,delta=1
    20                           	psect	text6,global,reloc=2,class=CODE,delta=1
    21                           	psect	text7,global,reloc=2,class=CODE,delta=1
    22                           	psect	intcode,global,reloc=2,class=CODE,delta=1
    23                           	psect	intcode_body,global,reloc=2,class=CODE,delta=1
    24                           	psect	text9,global,reloc=2,class=CODE,delta=1
    25                           	psect	text10,global,reloc=2,class=CODE,delta=1
    26                           	psect	text11,global,reloc=2,class=CODE,delta=1
    27                           	psect	text12,global,reloc=2,class=CODE,delta=1
    28                           	psect	text13,global,reloc=2,class=CODE,delta=1
    29                           	psect	text14,global,reloc=2,class=CODE,delta=1
    30                           	psect	text15,global,reloc=2,class=CODE,delta=1
    31                           	psect	text16,global,reloc=2,class=CODE,delta=1
    32                           	psect	text17,global,reloc=2,class=CODE,delta=1
    33                           	psect	text18,global,reloc=2,class=CODE,delta=1
    34                           	psect	text19,global,reloc=2,class=CODE,delta=1
    35                           	psect	text20,global,reloc=2,class=CODE,delta=1
    36                           	psect	text21,global,reloc=2,class=CODE,delta=1
    37                           	psect	text22,global,reloc=2,class=CODE,delta=1
    38                           	psect	text23,global,reloc=2,class=CODE,delta=1
    39                           	psect	text24,global,reloc=2,class=CODE,delta=1
    40                           	psect	text25,global,reloc=2,class=CODE,delta=1
    41                           	psect	text26,global,reloc=2,class=CODE,delta=1
    42                           	psect	intsave_regs,global,class=BIGRAM,space=1,delta=1,noexec
    43                           	psect	rparam,global,class=COMRAM,space=1,delta=1,noexec
    44                           	psect	temp,global,ovrld,common,class=COMRAM,space=1,delta=1
    45                           	psect	idloc,global,abs,ovrld,class=IDLOC,space=5,delta=1,noexec
    46                           	psect	config,global,abs,ovrld,class=CONFIG,space=4,delta=1,noexec
    47   000000                     
    48                           ; Generated 09/02/2023 GMT
    49                           ; 
    50                           ; Copyright © 2023, Microchip Technology Inc. and its subsidiaries ("Microchip")
    51                           ; All rights reserved.
    52                           ; 
    53                           ; This software is developed by Microchip Technology Inc. and its subsidiaries ("Microch
      +                          ip").
    54                           ; 
    55                           ; Redistribution and use in source and binary forms, with or without modification, are
    56                           ; permitted provided that the following conditions are met:
    57                           ; 
    58                           ;     1. Redistributions of source code must retain the above copyright notice, this lis
      +                          t of
    59                           ;        conditions and the following disclaimer.
    60                           ; 
    61                           ;     2. Redistributions in binary form must reproduce the above copyright notice, this 
      +                          list
    62                           ;        of conditions and the following disclaimer in the documentation and/or other
    63                           ;        materials provided with the distribution. Publication is not required when
    64                           ;        this file is used in an embedded application.
    65                           ; 
    66                           ;     3. Microchip's name may not be used to endorse or promote products derived from th
      +                          is
    67                           ;        software without specific prior written permission.
    68                           ; 
    69                           ; THIS SOFTWARE IS PROVIDED BY MICROCHIP "AS IS" AND ANY EXPRESS OR IMPLIED WARRANTIES,
    70                           ; INCLUDING, BUT NOT LIMITED TO, THE IMPLIED WARRANTIES OF MERCHANTABILITY AND FITNESS F
      +                          OR
    71                           ; PURPOSE ARE DISCLAIMED.  IN NO EVENT SHALL MICROCHIP BE LIABLE FOR ANY DIRECT, INDIREC
      +                          T,
    72                           ; INCIDENTAL, SPECIAL, EXEMPLARY, OR CONSEQUENTIAL DAMAGES (INCLUDING BUT NOT LIMITED TO
    73                           ; PROCUREMENT OF SUBSTITUTE GOODS OR SERVICES; LOSS OF USE, DATA OR PROFITS; OR BUSINESS
    74                           ; INTERRUPTION) HOWSOEVER CAUSED AND ON ANY THEORY OF LIABILITY, WHETHER IN CONTRACT, ST
      +                          RICT
    75                           ; LIABILITY, OR TORT (INCLUDING NEGLIGENCE OR OTHERWISE) ARISING IN ANY WAY OUT OF THE U
      +                          SE OF
    76                           ; THIS SOFTWARE, EVEN IF ADVISED OF THE POSSIBILITY OF SUCH DAMAGE.
    77                           ; 
    78                           ; 
    79                           ; Code-generator required, PIC18F4620 Definitions
    80                           ; 
    81                           ; SFR Addresses
    82   000000                     
    83                           	psect	idataCOMRAM
    84   00191A                     __pidataCOMRAM:
    85                           	callstack 0
    86                           
    87                           ;initializer for _lat_registers
    88   00191A  89                 	db	137
    89   00191B  0F                 	db	15
    90   00191C  8A                 	db	138
    91   00191D  0F                 	db	15
    92   00191E  8B                 	db	139
    93   00191F  0F                 	db	15
    94   001920  8C                 	db	140
    95   001921  0F                 	db	15
    96   001922  8D                 	db	141
    97   001923  0F                 	db	15
    98                           
    99                           ;initializer for _tris_registers
   100   001924  92                 	db	146
   101   001925  0F                 	db	15
   102   001926  93                 	db	147
   103   001927  0F                 	db	15
   104   001928  94                 	db	148
   105   001929  0F                 	db	15
   106   00192A  95                 	db	149
   107   00192B  0F                 	db	15
   108   00192C  96                 	db	150
   109   00192D  0F                 	db	15
   110                           
   111                           ;initializer for _RB7_Flag
   112   00192E  01                 	db	1
   113                           
   114                           ;initializer for _RB6_Flag
   115   00192F  01                 	db	1
   116                           
   117                           ;initializer for _RB5_Flag
   118   001930  01                 	db	1
   119                           
   120                           ;initializer for _RB4_Flag
   121   001931  01                 	db	1
   122                           
   123                           ;initializer for _lcd_1
   124   001932  02                 	db	2
   125   001933  0A                 	db	10
   126   001934  12                 	db	18
   127   001935  1A                 	db	26
   128   001936  22                 	db	34
   129   001937  2A                 	db	42
   130                           
   131                           ;initializer for _relay_2
   132   001938  12                 	db	18
   133                           
   134                           ;initializer for _relay_1
   135   001939  02                 	db	2
   136                           
   137                           	psect	idataBANK0
   138   0019BC                     __pidataBANK0:
   139                           	callstack 0
   140                           
   141                           ;initializer for _port_registers
   142   0019BC  80                 	db	128
   143   0019BD  0F                 	db	15
   144   0019BE  81                 	db	129
   145   0019BF  0F                 	db	15
   146   0019C0  82                 	db	130
   147   0019C1  0F                 	db	15
   148   0019C2  83                 	db	131
   149   0019C3  0F                 	db	15
   150   0019C4  84                 	db	132
   151   0019C5  0F                 	db	15
   152                           
   153                           ;initializer for _lcd_2
   154   0019C6  32                 	db	50
   155   0019C7  3A                 	db	58
   156   0019C8  03                 	db	3
   157   0019C9  0B                 	db	11
   158   0019CA  13                 	db	19
   159   0019CB  1B                 	db	27
   160   0019CC  23                 	db	35
   161   0019CD  2B                 	db	43
   162   0019CE  33                 	db	51
   163   0019CF  3B                 	db	59
   164                           
   165                           	psect	smallconst
   166   001000                     __psmallconst:
   167                           	callstack 0
   168   001000  00                 	db	0
   169   001001                     _btn_values:
   170                           	callstack 0
   171   001001  37                 	db	55
   172   001002  38                 	db	56
   173   001003  39                 	db	57
   174   001004  2F                 	db	47
   175   001005  34                 	db	52
   176   001006  35                 	db	53
   177   001007  36                 	db	54
   178   001008  2A                 	db	42
   179   001009  31                 	db	49
   180   00100A  32                 	db	50
   181   00100B  33                 	db	51
   182   00100C  2D                 	db	45
   183   00100D  23                 	db	35
   184   00100E  30                 	db	48
   185   00100F  3D                 	db	61
   186   001010  2B                 	db	43
   187   001011                     __end_of_btn_values:
   188                           	callstack 0
   189   000000                     _SPBRGH	set	4016
   190   000000                     _SPBRG	set	4015
   191   000000                     _TXREG	set	4013
   192   000000                     _TXSTAbits	set	4012
   193   000000                     _RCREG	set	4014
   194   000000                     _RCSTAbits	set	4011
   195   000000                     _TMR3L	set	4018
   196   000000                     _TMR3H	set	4019
   197   000000                     _TMR1L	set	4046
   198   000000                     _TMR1H	set	4047
   199   000000                     _TMR0L	set	4054
   200   000000                     _TMR0H	set	4055
   201   000000                     _INTCON2bits	set	4081
   202   000000                     _SSPSTATbits	set	4039
   203   000000                     _SSPADD	set	4040
   204   000000                     _SSPCON2bits	set	4037
   205   000000                     _SSPCON1bits	set	4038
   206   000000                     _EECON2	set	4007
   207   000000                     _CCPR2H	set	4028
   208   000000                     _CCPR2L	set	4027
   209   000000                     _CCPR1H	set	4031
   210   000000                     _CCPR1L	set	4030
   211   000000                     _ADCON1bits	set	4033
   212   000000                     _ADRESL	set	4035
   213   000000                     _ADRESH	set	4036
   214   000000                     _INTCONbits	set	4082
   215   000000                     _TRISD	set	3989
   216   000000                     _TRISC	set	3988
   217   000000                     _TRISB	set	3987
   218   000000                     _TRISE	set	3990
   219   000000                     _PORTBbits	set	3969
   220   000000                     _TRISCbits	set	3988
   221   000000                     _PIE1bits	set	3997
   222   000000                     _ADCON2bits	set	4032
   223   000000                     _ADCON0bits	set	4034
   224   000000                     _PORTE	set	3972
   225   000000                     _PORTD	set	3971
   226   000000                     _PORTC	set	3970
   227   000000                     _PORTB	set	3969
   228   000000                     _PORTA	set	3968
   229   000000                     _LATA	set	3977
   230   000000                     _TRISA	set	3986
   231   000000                     _PIE2bits	set	4000
   232   000000                     _CCP2CONbits	set	4026
   233   000000                     _CCP1CONbits	set	4029
   234   000000                     _PIR1bits	set	3998
   235   000000                     _EECON1bits	set	4006
   236   000000                     _EEDATA	set	4008
   237   000000                     _EEADR	set	4009
   238   000000                     _EEADRH	set	4010
   239   000000                     _T3CONbits	set	4017
   240   000000                     _PIR2bits	set	4001
   241   000000                     _LATE	set	3981
   242   000000                     _LATD	set	3980
   243   000000                     _LATC	set	3979
   244   000000                     _LATB	set	3978
   245   000000                     _TMR2	set	4044
   246   000000                     _T2CONbits	set	4042
   247   000000                     _T1CONbits	set	4045
   248   000000                     _T0CONbits	set	4053
   249   000000                     _INTCON3bits	set	4080
   250   000000                     _SSPBUF	set	4041
   251   000000                     _BAUDCONbits	set	4024
   252   001011                     STR_1:
   253   001011  25                 	db	37
   254   001012  69                 	db	105	;'i'
   255   001013  00                 	db	0
   256   001014  00                 	db	0	; dummy byte at the end
   257   000000                     
   258                           ; #config settings
   259                           
   260                           	psect	cinit
   261   0018C4                     __pcinit:
   262                           	callstack 0
   263   0018C4                     start_initialization:
   264                           	callstack 0
   265   0018C4                     __initialization:
   266                           	callstack 0
   267                           
   268                           ; Initialize objects allocated to BANK0 (20 bytes)
   269                           ; load TBLPTR registers with __pidataBANK0
   270   0018C4  0EBC               	movlw	low __pidataBANK0
   271   0018C6  6EF6               	movwf	tblptrl,c
   272   0018C8  0E19               	movlw	high __pidataBANK0
   273   0018CA  6EF7               	movwf	tblptrh,c
   274   0018CC  0E00               	movlw	low (__pidataBANK0 shr (0+16))
   275   0018CE  6EF8               	movwf	tblptru,c
   276   0018D0  EE00  F080         	lfsr	0,__pdataBANK0
   277   0018D4  EE10 F014          	lfsr	1,20
   278   0018D8                     copy_data0:
   279   0018D8  0009               	tblrd		*+
   280   0018DA  CFF5 FFEE          	movff	tablat,postinc0
   281   0018DE  50E5               	movf	postdec1,w,c
   282   0018E0  50E1               	movf	fsr1l,w,c
   283   0018E2  E1FA               	bnz	copy_data0
   284                           
   285                           ; Initialize objects allocated to COMRAM (32 bytes)
   286                           ; load TBLPTR registers with __pidataCOMRAM
   287   0018E4  0E1A               	movlw	low __pidataCOMRAM
   288   0018E6  6EF6               	movwf	tblptrl,c
   289   0018E8  0E19               	movlw	high __pidataCOMRAM
   290   0018EA  6EF7               	movwf	tblptrh,c
   291   0018EC  0E00               	movlw	low (__pidataCOMRAM shr (0+16))
   292   0018EE  6EF8               	movwf	tblptru,c
   293   0018F0  EE00  F049         	lfsr	0,__pdataCOMRAM
   294   0018F4  EE10 F020          	lfsr	1,32
   295   0018F8                     copy_data1:
   296   0018F8  0009               	tblrd		*+
   297   0018FA  CFF5 FFEE          	movff	tablat,postinc0
   298   0018FE  50E5               	movf	postdec1,w,c
   299   001900  50E1               	movf	fsr1l,w,c
   300   001902  E1FA               	bnz	copy_data1
   301                           
   302                           ; Clear objects allocated to COMRAM (72 bytes)
   303   001904  EE00  F001         	lfsr	0,__pbssCOMRAM
   304   001908  0E48               	movlw	72
   305   00190A                     clear_0:
   306   00190A  6AEE               	clrf	postinc0,c
   307   00190C  06E8               	decf	wreg,f,c
   308   00190E  E1FD               	bnz	clear_0
   309   001910                     end_of_initialization:
   310                           	callstack 0
   311   001910                     __end_of__initialization:
   312                           	callstack 0
   313   001910  907D               	bcf	int$flags,0,c	;clear compiler interrupt flag (level 1)
   314   001912  927D               	bcf	int$flags,1,c	;clear compiler interrupt flag (level 2)
   315   001914  0100               	movlb	0
   316   001916  EFF4  F00B         	goto	_main	;jump to C main() function
   317                           
   318                           	psect	bssCOMRAM
   319   000001                     __pbssCOMRAM:
   320                           	callstack 0
   321   000001                     	ds	6
   322   000007                     _USART_OverrunErrorHandler:
   323                           	callstack 0
   324   000007                     	ds	2
   325   000009                     _USART_FramingErrorHandler:
   326                           	callstack 0
   327   000009                     	ds	2
   328   00000B                     _USART_RxDefaultInterruptHandler:
   329                           	callstack 0
   330   00000B                     	ds	2
   331   00000D                     _USART_TxDefaultInterruptHandler:
   332                           	callstack 0
   333   00000D                     	ds	2
   334   00000F                     _TMR3_InterruptHandler:
   335                           	callstack 0
   336   00000F                     	ds	2
   337   000011                     _timer3_preload:
   338                           	callstack 0
   339   000011                     	ds	2
   340   000013                     _TMR2_InterruptHandler:
   341                           	callstack 0
   342   000013                     	ds	2
   343   000015                     _TMR1_InterruptHandler:
   344                           	callstack 0
   345   000015                     	ds	2
   346   000017                     _timer1_preload:
   347                           	callstack 0
   348   000017                     	ds	2
   349   000019                     _TMR0_InterruptHandler:
   350                           	callstack 0
   351   000019                     	ds	2
   352   00001B                     _timer0_preload:
   353                           	callstack 0
   354   00001B                     	ds	2
   355   00001D                     _RB7_InterruptHandler_LOW:
   356                           	callstack 0
   357   00001D                     	ds	2
   358   00001F                     _RB7_InterruptHandler_HIGH:
   359                           	callstack 0
   360   00001F                     	ds	2
   361   000021                     _RB6_InterruptHandler_LOW:
   362                           	callstack 0
   363   000021                     	ds	2
   364   000023                     _RB6_InterruptHandler_HIGH:
   365                           	callstack 0
   366   000023                     	ds	2
   367   000025                     _RB5_InterruptHandler_LOW:
   368                           	callstack 0
   369   000025                     	ds	2
   370   000027                     _RB5_InterruptHandler_HIGH:
   371                           	callstack 0
   372   000027                     	ds	2
   373   000029                     _RB4_InterruptHandler_LOW:
   374                           	callstack 0
   375   000029                     	ds	2
   376   00002B                     _RB4_InterruptHandler_HIGH:
   377                           	callstack 0
   378   00002B                     	ds	2
   379   00002D                     _INT2_InterruptHandler:
   380                           	callstack 0
   381   00002D                     	ds	2
   382   00002F                     _INT1_InterruptHandler:
   383                           	callstack 0
   384   00002F                     	ds	2
   385   000031                     _INT0_InterruptHandler:
   386                           	callstack 0
   387   000031                     	ds	2
   388   000033                     _MSSP_I2C_Report_Receive_Overflow_InterruptHandler:
   389                           	callstack 0
   390   000033                     	ds	2
   391   000035                     _MSSP_I2C_Report_Write_Collision_InterruptHandler:
   392                           	callstack 0
   393   000035                     	ds	2
   394   000037                     _MSSP_I2C_DefaultInterruptHandler:
   395                           	callstack 0
   396   000037                     	ds	2
   397   000039                     CCP_Set_Compare_Mode_Value@F3106:
   398                           	callstack 0
   399   000039                     	ds	2
   400   00003B                     _CCP2_InterruptHandler:
   401                           	callstack 0
   402   00003B                     	ds	2
   403   00003D                     _CCP1_InterruptHandler:
   404                           	callstack 0
   405   00003D                     	ds	2
   406   00003F                     _ADC_InterruptHandler:
   407                           	callstack 0
   408   00003F                     	ds	2
   409   000041                     _timer2_preload:
   410                           	callstack 0
   411   000041                     	ds	1
   412   000042                     relay_turn_off@F3052:
   413                           	callstack 0
   414   000042                     	ds	1
   415   000043                     relay_turn_on@F3047:
   416                           	callstack 0
   417   000043                     	ds	1
   418   000044                     relay_initialize@F3042:
   419                           	callstack 0
   420   000044                     	ds	1
   421   000045                     led_turn_toggle@F3063:
   422                           	callstack 0
   423   000045                     	ds	1
   424   000046                     led_turn_off@F3058:
   425                           	callstack 0
   426   000046                     	ds	1
   427   000047                     led_turn_on@F3053:
   428                           	callstack 0
   429   000047                     	ds	1
   430   000048                     led_initialize@F3048:
   431                           	callstack 0
   432   000048                     	ds	1
   433                           
   434                           	psect	dataCOMRAM
   435   000049                     __pdataCOMRAM:
   436                           	callstack 0
   437   000049                     _lat_registers:
   438                           	callstack 0
   439   000049                     	ds	10
   440   000053                     _tris_registers:
   441                           	callstack 0
   442   000053                     	ds	10
   443   00005D                     _RB7_Flag:
   444                           	callstack 0
   445   00005D                     	ds	1
   446   00005E                     _RB6_Flag:
   447                           	callstack 0
   448   00005E                     	ds	1
   449   00005F                     _RB5_Flag:
   450                           	callstack 0
   451   00005F                     	ds	1
   452   000060                     _RB4_Flag:
   453                           	callstack 0
   454   000060                     	ds	1
   455   000061                     _lcd_1:
   456                           	callstack 0
   457   000061                     	ds	6
   458   000067                     _relay_2:
   459                           	callstack 0
   460   000067                     	ds	1
   461   000068                     _relay_1:
   462                           	callstack 0
   463   000068                     	ds	1
   464                           
   465                           	psect	dataBANK0
   466   000080                     __pdataBANK0:
   467                           	callstack 0
   468   000080                     _port_registers:
   469                           	callstack 0
   470   000080                     	ds	10
   471   00008A                     _lcd_2:
   472                           	callstack 0
   473   00008A                     	ds	10
   474                           
   475                           	psect	cstackBANK0
   476   000094                     __pcstackBANK0:
   477                           	callstack 0
   478   000094                     ??_main:
   479                           
   480                           ; 1 bytes @ 0x0
   481   000094                     	ds	2
   482                           
   483                           	psect	cstackCOMRAM
   484   000069                     __pcstackCOMRAM:
   485                           	callstack 0
   486   000069                     RB4_ISR@RB4_Source:
   487                           	callstack 0
   488   000069                     RB5_ISR@RB5_Source:
   489                           	callstack 0
   490   000069                     RB6_ISR@RB6_Source:
   491                           	callstack 0
   492   000069                     RB7_ISR@RB7_Source:
   493                           	callstack 0
   494                           
   495                           ; 1 bytes @ 0x0
   496   000069                     	ds	1
   497   00006A                     gpio_pin_direction_intialize@_pin_config:
   498                           	callstack 0
   499   00006A                     gpio_pin_write_logic@_pin_config:
   500                           	callstack 0
   501                           
   502                           ; 2 bytes @ 0x1
   503   00006A                     	ds	2
   504   00006C                     ??_gpio_pin_direction_intialize:
   505   00006C                     gpio_pin_write_logic@logic:
   506                           	callstack 0
   507                           
   508                           ; 1 bytes @ 0x3
   509   00006C                     	ds	1
   510   00006D                     ??_gpio_pin_write_logic:
   511                           
   512                           ; 1 bytes @ 0x4
   513   00006D                     	ds	5
   514   000072                     gpio_pin_direction_intialize@ret:
   515                           	callstack 0
   516                           
   517                           ; 1 bytes @ 0x9
   518   000072                     	ds	1
   519   000073                     gpio_pin_write_logic@ret:
   520                           	callstack 0
   521                           
   522                           ; 1 bytes @ 0xA
   523   000073                     	ds	1
   524   000074                     relay_turn_on@_relay:
   525                           	callstack 0
   526   000074                     relay_turn_off@_relay:
   527                           	callstack 0
   528   000074                     gpio_pin_intialize@_pin_config:
   529                           	callstack 0
   530                           
   531                           ; 2 bytes @ 0xB
   532   000074                     	ds	2
   533   000076                     ??_gpio_pin_intialize:
   534   000076                     ??_relay_turn_on:
   535   000076                     ??_relay_turn_off:
   536                           
   537                           ; 1 bytes @ 0xD
   538   000076                     	ds	1
   539   000077                     relay_turn_on@ret:
   540                           	callstack 0
   541   000077                     relay_turn_off@ret:
   542                           	callstack 0
   543   000077                     gpio_pin_intialize@ret:
   544                           	callstack 0
   545                           
   546                           ; 1 bytes @ 0xE
   547   000077                     	ds	1
   548   000078                     relay_turn_on@pin_obj:
   549                           	callstack 0
   550   000078                     relay_turn_off@pin_obj:
   551                           	callstack 0
   552   000078                     relay_initialize@_relay:
   553                           	callstack 0
   554                           
   555                           ; 2 bytes @ 0xF
   556   000078                     	ds	2
   557   00007A                     ??_relay_initialize:
   558                           
   559                           ; 1 bytes @ 0x11
   560   00007A                     	ds	1
   561   00007B                     relay_initialize@ret:
   562                           	callstack 0
   563                           
   564                           ; 1 bytes @ 0x12
   565   00007B                     	ds	1
   566   00007C                     relay_initialize@pin_obj:
   567                           	callstack 0
   568                           
   569                           ; 1 bytes @ 0x13
   570   00007C                     	ds	1
   571   00007D                     
   572                           ; 1 bytes @ 0x14
   573 ;;
   574 ;;Main: autosize = 0, tempsize = 2, incstack = 0, save=0
   575 ;;
   576 ;; *************** function _main *****************
   577 ;; Defined at:
   578 ;;		line 30 in file "application.c"
   579 ;; Parameters:    Size  Location     Type
   580 ;;		None
   581 ;; Auto vars:     Size  Location     Type
   582 ;;  ret             1    0        unsigned char 
   583 ;; Return value:  Size  Location     Type
   584 ;;                  2  1571[None  ] int 
   585 ;; Registers used:
   586 ;;		wreg, fsr2l, fsr2h, status,2, status,0, prodl, prodh, cstack
   587 ;; Tracked objects:
   588 ;;		On entry : 0/0
   589 ;;		On exit  : 0/0
   590 ;;		Unchanged: 0/0
   591 ;; Data sizes:     COMRAM   BANK0   BANK1   BANK2   BANK3   BANK4   BANK5   BANK6   BANK7   BANK8   BANK9  BANK10  BANK1
      +1  BANK12  BANK13  BANK14  BANK15
   592 ;;      Params:         0       0       0       0       0       0       0       0       0       0       0       0       
      +0       0       0       0       0
   593 ;;      Locals:         0       0       0       0       0       0       0       0       0       0       0       0       
      +0       0       0       0       0
   594 ;;      Temps:          0       2       0       0       0       0       0       0       0       0       0       0       
      +0       0       0       0       0
   595 ;;      Totals:         0       2       0       0       0       0       0       0       0       0       0       0       
      +0       0       0       0       0
   596 ;;Total ram usage:        2 bytes
   597 ;; Hardware stack levels required when called: 6
   598 ;; This function calls:
   599 ;;		_application_intialize
   600 ;;		_relay_turn_off
   601 ;;		_relay_turn_on
   602 ;; This function is called by:
   603 ;;		Startup code after reset
   604 ;; This function uses a non-reentrant model
   605 ;;
   606                           
   607                           	psect	text0
   608   0017E8                     __ptext0:
   609                           	callstack 0
   610   0017E8                     _main:
   611                           	callstack 25
   612   0017E8                     
   613                           ;application.c: 33:     application_intialize();
   614   0017E8  EC9D  F00C         	call	_application_intialize	;wreg free
   615   0017EC                     l5681:
   616   0017EC  0E68               	movlw	low _relay_1
   617   0017EE  6E74               	movwf	relay_turn_on@_relay^0,c
   618   0017F0  0E00               	movlw	high _relay_1
   619   0017F2  6E75               	movwf	(relay_turn_on@_relay+1)^0,c
   620   0017F4  EC36  F00B         	call	_relay_turn_on	;wreg free
   621   0017F8  0E67               	movlw	low _relay_2
   622   0017FA  6E74               	movwf	relay_turn_off@_relay^0,c
   623   0017FC  0E00               	movlw	high _relay_2
   624   0017FE  6E75               	movwf	(relay_turn_off@_relay+1)^0,c
   625   001800  EC76  F00B         	call	_relay_turn_off	;wreg free
   626   001804                     
   627                           ;application.c: 39:         _delay((unsigned long)((5000)*(8000000UL/4000.0)));
   628   001804  0E33               	movlw	51
   629   001806  0100               	movlb	0	; () banked
   630   001808  6F95               	movwf	(??_main+1)& (0+255),b
   631   00180A  0EBB               	movlw	187
   632   00180C  6F94               	movwf	??_main& (0+255),b
   633   00180E  0EDF               	movlw	223
   634   001810                     u3887:
   635   001810  2EE8               	decfsz	wreg,f,c
   636   001812  D7FE               	bra	u3887
   637   001814  2F94               	decfsz	??_main& (0+255),f,b
   638   001816  D7FC               	bra	u3887
   639   001818  2F95               	decfsz	(??_main+1)& (0+255),f,b
   640   00181A  D7FA               	bra	u3887
   641   00181C  D000               	nop2	
   642   00181E  0E68               	movlw	low _relay_1
   643   001820  6E74               	movwf	relay_turn_off@_relay^0,c
   644   001822  0E00               	movlw	high _relay_1
   645   001824  6E75               	movwf	(relay_turn_off@_relay+1)^0,c
   646   001826  EC76  F00B         	call	_relay_turn_off	;wreg free
   647   00182A  0E67               	movlw	low _relay_2
   648   00182C  6E74               	movwf	relay_turn_on@_relay^0,c
   649   00182E  0E00               	movlw	high _relay_2
   650   001830  6E75               	movwf	(relay_turn_on@_relay+1)^0,c
   651   001832  EC36  F00B         	call	_relay_turn_on	;wreg free
   652   001836                     
   653                           ;application.c: 42:         _delay((unsigned long)((5000)*(8000000UL/4000.0)));
   654   001836  0E33               	movlw	51
   655   001838  0100               	movlb	0	; () banked
   656   00183A  6F95               	movwf	(??_main+1)& (0+255),b
   657   00183C  0EBB               	movlw	187
   658   00183E  6F94               	movwf	??_main& (0+255),b
   659   001840  0EDF               	movlw	223
   660   001842                     u3897:
   661   001842  2EE8               	decfsz	wreg,f,c
   662   001844  D7FE               	bra	u3897
   663   001846  2F94               	decfsz	??_main& (0+255),f,b
   664   001848  D7FC               	bra	u3897
   665   00184A  2F95               	decfsz	(??_main+1)& (0+255),f,b
   666   00184C  D7FA               	bra	u3897
   667   00184E  D000               	nop2	
   668   001850  EFF6  F00B         	goto	l5681
   669   001854  EF07  F000         	goto	start
   670   001858                     __end_of_main:
   671                           	callstack 0
   672                           
   673 ;; *************** function _relay_turn_on *****************
   674 ;; Defined at:
   675 ;;		line 43 in file "ECU_Layer/Relay/ecu_relay.c"
   676 ;; Parameters:    Size  Location     Type
   677 ;;  _relay          2   11[COMRAM] PTR const struct .
   678 ;;		 -> relay_2(1), relay_1(1), 
   679 ;; Auto vars:     Size  Location     Type
   680 ;;  pin_obj         1   15[COMRAM] struct .
   681 ;;  ret             1   14[COMRAM] unsigned char 
   682 ;; Return value:  Size  Location     Type
   683 ;;                  1    wreg      unsigned char 
   684 ;; Registers used:
   685 ;;		wreg, fsr2l, fsr2h, status,2, status,0, prodl, prodh, cstack
   686 ;; Tracked objects:
   687 ;;		On entry : 0/0
   688 ;;		On exit  : 0/0
   689 ;;		Unchanged: 0/0
   690 ;; Data sizes:     COMRAM   BANK0   BANK1   BANK2   BANK3   BANK4   BANK5   BANK6   BANK7   BANK8   BANK9  BANK10  BANK1
      +1  BANK12  BANK13  BANK14  BANK15
   691 ;;      Params:         2       0       0       0       0       0       0       0       0       0       0       0       
      +0       0       0       0       0
   692 ;;      Locals:         2       0       0       0       0       0       0       0       0       0       0       0       
      +0       0       0       0       0
   693 ;;      Temps:          1       0       0       0       0       0       0       0       0       0       0       0       
      +0       0       0       0       0
   694 ;;      Totals:         5       0       0       0       0       0       0       0       0       0       0       0       
      +0       0       0       0       0
   695 ;;Total ram usage:        5 bytes
   696 ;; Hardware stack levels used: 1
   697 ;; Hardware stack levels required when called: 3
   698 ;; This function calls:
   699 ;;		_gpio_pin_write_logic
   700 ;; This function is called by:
   701 ;;		_main
   702 ;; This function uses a non-reentrant model
   703 ;;
   704                           
   705                           	psect	text1
   706   00166C                     __ptext1:
   707                           	callstack 0
   708   00166C                     _relay_turn_on:
   709                           	callstack 27
   710   00166C                     
   711                           ;ECU_Layer/Relay/ecu_relay.c: 43: Std_ReturnType relay_turn_on(const relay_t *_relay);EC
      +                          U_Layer/Relay/ecu_relay.c: 44: {;ECU_Layer/Relay/ecu_relay.c: 45:     Std_ReturnType ret
      +                           = (Std_ReturnType)0x01;
   712   00166C  0E01               	movlw	1
   713   00166E  6E77               	movwf	relay_turn_on@ret^0,c
   714   001670                     
   715                           ;ECU_Layer/Relay/ecu_relay.c: 46:     if(((void*)0) == _relay)
   716   001670  5074               	movf	relay_turn_on@_relay^0,w,c
   717   001672  1075               	iorwf	(relay_turn_on@_relay+1)^0,w,c
   718   001674  A4D8               	btfss	status,2,c
   719   001676  EF3F  F00B         	goto	u3341
   720   00167A  EF41  F00B         	goto	u3340
   721   00167E                     u3341:
   722   00167E  EF45  F00B         	goto	l309
   723   001682                     u3340:
   724   001682                     
   725                           ;ECU_Layer/Relay/ecu_relay.c: 47:     {;ECU_Layer/Relay/ecu_relay.c: 48:         ret = (
      +                          Std_ReturnType)0x00;
   726   001682  0E00               	movlw	0
   727   001684  6E77               	movwf	relay_turn_on@ret^0,c
   728                           
   729                           ;ECU_Layer/Relay/ecu_relay.c: 49:     }
   730   001686  EF74  F00B         	goto	l5149
   731   00168A                     l309:
   732                           
   733                           ;ECU_Layer/Relay/ecu_relay.c: 51:     {;ECU_Layer/Relay/ecu_relay.c: 52:         pin_con
      +                          fig_t pin_obj = {.port = _relay->relay_port, .pin = _relay->relay_pin, .direction = GPIO
      +                          _DIRECTION_OUTPUT, .logic = _relay->relay_status};
   734   00168A  C043  F078         	movff	relay_turn_on@F3047,relay_turn_on@pin_obj
   735   00168E  C074  FFD9         	movff	relay_turn_on@_relay,fsr2l
   736   001692  C075  FFDA         	movff	relay_turn_on@_relay+1,fsr2h
   737   001696  50DF               	movf	223,w,c
   738   001698  0B0F               	andlw	15
   739   00169A  6E76               	movwf	??_relay_turn_on^0,c
   740   00169C  5078               	movf	relay_turn_on@pin_obj^0,w,c
   741   00169E  1876               	xorwf	??_relay_turn_on^0,w,c
   742   0016A0  0BF8               	andlw	-8
   743   0016A2  1876               	xorwf	??_relay_turn_on^0,w,c
   744   0016A4  6E78               	movwf	relay_turn_on@pin_obj^0,c
   745   0016A6  C074  FFD9         	movff	relay_turn_on@_relay,fsr2l
   746   0016AA  C075  FFDA         	movff	relay_turn_on@_relay+1,fsr2h
   747   0016AE  38DF               	swapf	223,w,c
   748   0016B0  0B07               	andlw	7
   749   0016B2  6E76               	movwf	??_relay_turn_on^0,c
   750   0016B4  4676               	rlncf	??_relay_turn_on^0,f,c
   751   0016B6  4676               	rlncf	??_relay_turn_on^0,f,c
   752   0016B8  4676               	rlncf	??_relay_turn_on^0,f,c
   753   0016BA  5078               	movf	relay_turn_on@pin_obj^0,w,c
   754   0016BC  1876               	xorwf	??_relay_turn_on^0,w,c
   755   0016BE  0BC7               	andlw	-57
   756   0016C0  1876               	xorwf	??_relay_turn_on^0,w,c
   757   0016C2  6E78               	movwf	relay_turn_on@pin_obj^0,c
   758   0016C4  9C78               	bcf	relay_turn_on@pin_obj^0,6,c
   759   0016C6  C074  FFD9         	movff	relay_turn_on@_relay,fsr2l
   760   0016CA  C075  FFDA         	movff	relay_turn_on@_relay+1,fsr2h
   761   0016CE  AEDF               	btfss	indf2,7,c
   762   0016D0  D002               	bra	u3355
   763   0016D2  8E78               	bsf	relay_turn_on@pin_obj^0,7,c
   764   0016D4  D001               	bra	u3357
   765   0016D6                     u3355:
   766   0016D6  9E78               	bcf	relay_turn_on@pin_obj^0,7,c
   767   0016D8                     u3357:
   768   0016D8                     
   769                           ;ECU_Layer/Relay/ecu_relay.c: 53:         gpio_pin_write_logic(&pin_obj, GPIO_HIGH);
   770   0016D8  0E78               	movlw	low relay_turn_on@pin_obj
   771   0016DA  6E6A               	movwf	gpio_pin_write_logic@_pin_config^0,c
   772   0016DC  0E00               	movlw	high relay_turn_on@pin_obj
   773   0016DE  6E6B               	movwf	(gpio_pin_write_logic@_pin_config+1)^0,c
   774   0016E0  0E01               	movlw	1
   775   0016E2  6E6C               	movwf	gpio_pin_write_logic@logic^0,c
   776   0016E4  ECA0  F00A         	call	_gpio_pin_write_logic	;wreg free
   777   0016E8                     l5149:
   778                           
   779                           ;ECU_Layer/Relay/ecu_relay.c: 55:     return ret;
   780   0016E8  5077               	movf	relay_turn_on@ret^0,w,c
   781   0016EA  0012               	return		;funcret
   782   0016EC                     __end_of_relay_turn_on:
   783                           	callstack 0
   784                           
   785 ;; *************** function _relay_turn_off *****************
   786 ;; Defined at:
   787 ;;		line 65 in file "ECU_Layer/Relay/ecu_relay.c"
   788 ;; Parameters:    Size  Location     Type
   789 ;;  _relay          2   11[COMRAM] PTR const struct .
   790 ;;		 -> relay_2(1), relay_1(1), 
   791 ;; Auto vars:     Size  Location     Type
   792 ;;  pin_obj         1   15[COMRAM] struct .
   793 ;;  ret             1   14[COMRAM] unsigned char 
   794 ;; Return value:  Size  Location     Type
   795 ;;                  1    wreg      unsigned char 
   796 ;; Registers used:
   797 ;;		wreg, fsr2l, fsr2h, status,2, status,0, prodl, prodh, cstack
   798 ;; Tracked objects:
   799 ;;		On entry : 0/0
   800 ;;		On exit  : 0/0
   801 ;;		Unchanged: 0/0
   802 ;; Data sizes:     COMRAM   BANK0   BANK1   BANK2   BANK3   BANK4   BANK5   BANK6   BANK7   BANK8   BANK9  BANK10  BANK1
      +1  BANK12  BANK13  BANK14  BANK15
   803 ;;      Params:         2       0       0       0       0       0       0       0       0       0       0       0       
      +0       0       0       0       0
   804 ;;      Locals:         2       0       0       0       0       0       0       0       0       0       0       0       
      +0       0       0       0       0
   805 ;;      Temps:          1       0       0       0       0       0       0       0       0       0       0       0       
      +0       0       0       0       0
   806 ;;      Totals:         5       0       0       0       0       0       0       0       0       0       0       0       
      +0       0       0       0       0
   807 ;;Total ram usage:        5 bytes
   808 ;; Hardware stack levels used: 1
   809 ;; Hardware stack levels required when called: 3
   810 ;; This function calls:
   811 ;;		_gpio_pin_write_logic
   812 ;; This function is called by:
   813 ;;		_main
   814 ;; This function uses a non-reentrant model
   815 ;;
   816                           
   817                           	psect	text2
   818   0016EC                     __ptext2:
   819                           	callstack 0
   820   0016EC                     _relay_turn_off:
   821                           	callstack 27
   822   0016EC                     
   823                           ;ECU_Layer/Relay/ecu_relay.c: 65: Std_ReturnType relay_turn_off(const relay_t *_relay);E
      +                          CU_Layer/Relay/ecu_relay.c: 66: {;ECU_Layer/Relay/ecu_relay.c: 67:     Std_ReturnType re
      +                          t = (Std_ReturnType)0x01;
   824   0016EC  0E01               	movlw	1
   825   0016EE  6E77               	movwf	relay_turn_off@ret^0,c
   826   0016F0                     
   827                           ;ECU_Layer/Relay/ecu_relay.c: 68:     if(((void*)0) == _relay)
   828   0016F0  5074               	movf	relay_turn_off@_relay^0,w,c
   829   0016F2  1075               	iorwf	(relay_turn_off@_relay+1)^0,w,c
   830   0016F4  A4D8               	btfss	status,2,c
   831   0016F6  EF7F  F00B         	goto	u3361
   832   0016FA  EF81  F00B         	goto	u3360
   833   0016FE                     u3361:
   834   0016FE  EF85  F00B         	goto	l316
   835   001702                     u3360:
   836   001702                     
   837                           ;ECU_Layer/Relay/ecu_relay.c: 69:     {;ECU_Layer/Relay/ecu_relay.c: 70:         ret = (
      +                          Std_ReturnType)0x00;
   838   001702  0E00               	movlw	0
   839   001704  6E77               	movwf	relay_turn_off@ret^0,c
   840                           
   841                           ;ECU_Layer/Relay/ecu_relay.c: 71:     }
   842   001706  EFB4  F00B         	goto	l5167
   843   00170A                     l316:
   844                           
   845                           ;ECU_Layer/Relay/ecu_relay.c: 73:     {;ECU_Layer/Relay/ecu_relay.c: 74:         pin_con
      +                          fig_t pin_obj = {.port = _relay->relay_port, .pin = _relay->relay_pin, .direction = GPIO
      +                          _DIRECTION_OUTPUT, .logic = _relay->relay_status};
   846   00170A  C042  F078         	movff	relay_turn_off@F3052,relay_turn_off@pin_obj
   847   00170E  C074  FFD9         	movff	relay_turn_off@_relay,fsr2l
   848   001712  C075  FFDA         	movff	relay_turn_off@_relay+1,fsr2h
   849   001716  50DF               	movf	223,w,c
   850   001718  0B0F               	andlw	15
   851   00171A  6E76               	movwf	??_relay_turn_off^0,c
   852   00171C  5078               	movf	relay_turn_off@pin_obj^0,w,c
   853   00171E  1876               	xorwf	??_relay_turn_off^0,w,c
   854   001720  0BF8               	andlw	-8
   855   001722  1876               	xorwf	??_relay_turn_off^0,w,c
   856   001724  6E78               	movwf	relay_turn_off@pin_obj^0,c
   857   001726  C074  FFD9         	movff	relay_turn_off@_relay,fsr2l
   858   00172A  C075  FFDA         	movff	relay_turn_off@_relay+1,fsr2h
   859   00172E  38DF               	swapf	223,w,c
   860   001730  0B07               	andlw	7
   861   001732  6E76               	movwf	??_relay_turn_off^0,c
   862   001734  4676               	rlncf	??_relay_turn_off^0,f,c
   863   001736  4676               	rlncf	??_relay_turn_off^0,f,c
   864   001738  4676               	rlncf	??_relay_turn_off^0,f,c
   865   00173A  5078               	movf	relay_turn_off@pin_obj^0,w,c
   866   00173C  1876               	xorwf	??_relay_turn_off^0,w,c
   867   00173E  0BC7               	andlw	-57
   868   001740  1876               	xorwf	??_relay_turn_off^0,w,c
   869   001742  6E78               	movwf	relay_turn_off@pin_obj^0,c
   870   001744  9C78               	bcf	relay_turn_off@pin_obj^0,6,c
   871   001746  C074  FFD9         	movff	relay_turn_off@_relay,fsr2l
   872   00174A  C075  FFDA         	movff	relay_turn_off@_relay+1,fsr2h
   873   00174E  AEDF               	btfss	indf2,7,c
   874   001750  D002               	bra	u3375
   875   001752  8E78               	bsf	relay_turn_off@pin_obj^0,7,c
   876   001754  D001               	bra	u3377
   877   001756                     u3375:
   878   001756  9E78               	bcf	relay_turn_off@pin_obj^0,7,c
   879   001758                     u3377:
   880   001758                     
   881                           ;ECU_Layer/Relay/ecu_relay.c: 75:         gpio_pin_write_logic(&pin_obj, GPIO_LOW);
   882   001758  0E78               	movlw	low relay_turn_off@pin_obj
   883   00175A  6E6A               	movwf	gpio_pin_write_logic@_pin_config^0,c
   884   00175C  0E00               	movlw	high relay_turn_off@pin_obj
   885   00175E  6E6B               	movwf	(gpio_pin_write_logic@_pin_config+1)^0,c
   886   001760  0E00               	movlw	0
   887   001762  6E6C               	movwf	gpio_pin_write_logic@logic^0,c
   888   001764  ECA0  F00A         	call	_gpio_pin_write_logic	;wreg free
   889   001768                     l5167:
   890                           
   891                           ;ECU_Layer/Relay/ecu_relay.c: 77:     return ret;
   892   001768  5077               	movf	relay_turn_off@ret^0,w,c
   893   00176A  0012               	return		;funcret
   894   00176C                     __end_of_relay_turn_off:
   895                           	callstack 0
   896                           
   897 ;; *************** function _application_intialize *****************
   898 ;; Defined at:
   899 ;;		line 51 in file "application.c"
   900 ;; Parameters:    Size  Location     Type
   901 ;;		None
   902 ;; Auto vars:     Size  Location     Type
   903 ;;  ret             1    0        unsigned char 
   904 ;; Return value:  Size  Location     Type
   905 ;;                  1    wreg      void 
   906 ;; Registers used:
   907 ;;		wreg, fsr2l, fsr2h, status,2, status,0, prodl, prodh, cstack
   908 ;; Tracked objects:
   909 ;;		On entry : 0/0
   910 ;;		On exit  : 0/0
   911 ;;		Unchanged: 0/0
   912 ;; Data sizes:     COMRAM   BANK0   BANK1   BANK2   BANK3   BANK4   BANK5   BANK6   BANK7   BANK8   BANK9  BANK10  BANK1
      +1  BANK12  BANK13  BANK14  BANK15
   913 ;;      Params:         0       0       0       0       0       0       0       0       0       0       0       0       
      +0       0       0       0       0
   914 ;;      Locals:         0       0       0       0       0       0       0       0       0       0       0       0       
      +0       0       0       0       0
   915 ;;      Temps:          0       0       0       0       0       0       0       0       0       0       0       0       
      +0       0       0       0       0
   916 ;;      Totals:         0       0       0       0       0       0       0       0       0       0       0       0       
      +0       0       0       0       0
   917 ;;Total ram usage:        0 bytes
   918 ;; Hardware stack levels used: 1
   919 ;; Hardware stack levels required when called: 5
   920 ;; This function calls:
   921 ;;		_relay_initialize
   922 ;; This function is called by:
   923 ;;		_main
   924 ;; This function uses a non-reentrant model
   925 ;;
   926                           
   927                           	psect	text3
   928   00193A                     __ptext3:
   929                           	callstack 0
   930   00193A                     _application_intialize:
   931                           	callstack 25
   932   00193A  0E68               	movlw	low _relay_1
   933   00193C  6E78               	movwf	relay_initialize@_relay^0,c
   934   00193E  0E00               	movlw	high _relay_1
   935   001940  6E79               	movwf	(relay_initialize@_relay+1)^0,c
   936   001942  ECB6  F00B         	call	_relay_initialize	;wreg free
   937   001946  0E67               	movlw	low _relay_2
   938   001948  6E78               	movwf	relay_initialize@_relay^0,c
   939   00194A  0E00               	movlw	high _relay_2
   940   00194C  6E79               	movwf	(relay_initialize@_relay+1)^0,c
   941   00194E  ECB6  F00B         	call	_relay_initialize	;wreg free
   942   001952  0012               	return		;funcret
   943   001954                     __end_of_application_intialize:
   944                           	callstack 0
   945                           
   946 ;; *************** function _relay_initialize *****************
   947 ;; Defined at:
   948 ;;		line 21 in file "ECU_Layer/Relay/ecu_relay.c"
   949 ;; Parameters:    Size  Location     Type
   950 ;;  _relay          2   15[COMRAM] PTR const struct .
   951 ;;		 -> relay_2(1), relay_1(1), 
   952 ;; Auto vars:     Size  Location     Type
   953 ;;  pin_obj         1   19[COMRAM] struct .
   954 ;;  ret             1   18[COMRAM] unsigned char 
   955 ;; Return value:  Size  Location     Type
   956 ;;                  1    wreg      unsigned char 
   957 ;; Registers used:
   958 ;;		wreg, fsr2l, fsr2h, status,2, status,0, prodl, prodh, cstack
   959 ;; Tracked objects:
   960 ;;		On entry : 0/0
   961 ;;		On exit  : 0/0
   962 ;;		Unchanged: 0/0
   963 ;; Data sizes:     COMRAM   BANK0   BANK1   BANK2   BANK3   BANK4   BANK5   BANK6   BANK7   BANK8   BANK9  BANK10  BANK1
      +1  BANK12  BANK13  BANK14  BANK15
   964 ;;      Params:         2       0       0       0       0       0       0       0       0       0       0       0       
      +0       0       0       0       0
   965 ;;      Locals:         2       0       0       0       0       0       0       0       0       0       0       0       
      +0       0       0       0       0
   966 ;;      Temps:          1       0       0       0       0       0       0       0       0       0       0       0       
      +0       0       0       0       0
   967 ;;      Totals:         5       0       0       0       0       0       0       0       0       0       0       0       
      +0       0       0       0       0
   968 ;;Total ram usage:        5 bytes
   969 ;; Hardware stack levels used: 1
   970 ;; Hardware stack levels required when called: 4
   971 ;; This function calls:
   972 ;;		_gpio_pin_intialize
   973 ;; This function is called by:
   974 ;;		_application_intialize
   975 ;; This function uses a non-reentrant model
   976 ;;
   977                           
   978                           	psect	text4
   979   00176C                     __ptext4:
   980                           	callstack 0
   981   00176C                     _relay_initialize:
   982                           	callstack 25
   983   00176C                     
   984                           ;ECU_Layer/Relay/ecu_relay.c: 21: Std_ReturnType relay_initialize(const relay_t *_relay)
      +                          ;ECU_Layer/Relay/ecu_relay.c: 22: {;ECU_Layer/Relay/ecu_relay.c: 23:     Std_ReturnType 
      +                          ret = (Std_ReturnType)0x01;
   985   00176C  0E01               	movlw	1
   986   00176E  6E7B               	movwf	relay_initialize@ret^0,c
   987   001770                     
   988                           ;ECU_Layer/Relay/ecu_relay.c: 24:     if(((void*)0) == _relay)
   989   001770  5078               	movf	relay_initialize@_relay^0,w,c
   990   001772  1079               	iorwf	(relay_initialize@_relay+1)^0,w,c
   991   001774  A4D8               	btfss	status,2,c
   992   001776  EFBF  F00B         	goto	u3241
   993   00177A  EFC1  F00B         	goto	u3240
   994   00177E                     u3241:
   995   00177E  EFC5  F00B         	goto	l302
   996   001782                     u3240:
   997   001782                     
   998                           ;ECU_Layer/Relay/ecu_relay.c: 25:     {;ECU_Layer/Relay/ecu_relay.c: 26:         ret = (
      +                          Std_ReturnType)0x00;
   999   001782  0E00               	movlw	0
  1000   001784  6E7B               	movwf	relay_initialize@ret^0,c
  1001                           
  1002                           ;ECU_Layer/Relay/ecu_relay.c: 27:     }
  1003   001786  EFF2  F00B         	goto	l4999
  1004   00178A                     l302:
  1005                           
  1006                           ;ECU_Layer/Relay/ecu_relay.c: 29:     {;ECU_Layer/Relay/ecu_relay.c: 30:         pin_con
      +                          fig_t pin_obj = {.port = _relay->relay_port, .pin = _relay->relay_pin, .direction = GPIO
      +                          _DIRECTION_OUTPUT, .logic = _relay->relay_status};
  1007   00178A  C044  F07C         	movff	relay_initialize@F3042,relay_initialize@pin_obj
  1008   00178E  C078  FFD9         	movff	relay_initialize@_relay,fsr2l
  1009   001792  C079  FFDA         	movff	relay_initialize@_relay+1,fsr2h
  1010   001796  50DF               	movf	223,w,c
  1011   001798  0B0F               	andlw	15
  1012   00179A  6E7A               	movwf	??_relay_initialize^0,c
  1013   00179C  507C               	movf	relay_initialize@pin_obj^0,w,c
  1014   00179E  187A               	xorwf	??_relay_initialize^0,w,c
  1015   0017A0  0BF8               	andlw	-8
  1016   0017A2  187A               	xorwf	??_relay_initialize^0,w,c
  1017   0017A4  6E7C               	movwf	relay_initialize@pin_obj^0,c
  1018   0017A6  C078  FFD9         	movff	relay_initialize@_relay,fsr2l
  1019   0017AA  C079  FFDA         	movff	relay_initialize@_relay+1,fsr2h
  1020   0017AE  38DF               	swapf	223,w,c
  1021   0017B0  0B07               	andlw	7
  1022   0017B2  6E7A               	movwf	??_relay_initialize^0,c
  1023   0017B4  467A               	rlncf	??_relay_initialize^0,f,c
  1024   0017B6  467A               	rlncf	??_relay_initialize^0,f,c
  1025   0017B8  467A               	rlncf	??_relay_initialize^0,f,c
  1026   0017BA  507C               	movf	relay_initialize@pin_obj^0,w,c
  1027   0017BC  187A               	xorwf	??_relay_initialize^0,w,c
  1028   0017BE  0BC7               	andlw	-57
  1029   0017C0  187A               	xorwf	??_relay_initialize^0,w,c
  1030   0017C2  6E7C               	movwf	relay_initialize@pin_obj^0,c
  1031   0017C4  9C7C               	bcf	relay_initialize@pin_obj^0,6,c
  1032   0017C6  C078  FFD9         	movff	relay_initialize@_relay,fsr2l
  1033   0017CA  C079  FFDA         	movff	relay_initialize@_relay+1,fsr2h
  1034   0017CE  AEDF               	btfss	indf2,7,c
  1035   0017D0  D002               	bra	u3255
  1036   0017D2  8E7C               	bsf	relay_initialize@pin_obj^0,7,c
  1037   0017D4  D001               	bra	u3257
  1038   0017D6                     u3255:
  1039   0017D6  9E7C               	bcf	relay_initialize@pin_obj^0,7,c
  1040   0017D8                     u3257:
  1041   0017D8                     
  1042                           ;ECU_Layer/Relay/ecu_relay.c: 31:         gpio_pin_intialize(&pin_obj);
  1043   0017D8  0E7C               	movlw	low relay_initialize@pin_obj
  1044   0017DA  6E74               	movwf	gpio_pin_intialize@_pin_config^0,c
  1045   0017DC  0E00               	movlw	high relay_initialize@pin_obj
  1046   0017DE  6E75               	movwf	(gpio_pin_intialize@_pin_config+1)^0,c
  1047   0017E0  EC2C  F00C         	call	_gpio_pin_intialize	;wreg free
  1048   0017E4                     l4999:
  1049                           
  1050                           ;ECU_Layer/Relay/ecu_relay.c: 33:     return ret;
  1051   0017E4  507B               	movf	relay_initialize@ret^0,w,c
  1052   0017E6  0012               	return		;funcret
  1053   0017E8                     __end_of_relay_initialize:
  1054                           	callstack 0
  1055                           
  1056 ;; *************** function _gpio_pin_intialize *****************
  1057 ;; Defined at:
  1058 ;;		line 167 in file "MCAL_Layer/GPIO/hal_gpio.c"
  1059 ;; Parameters:    Size  Location     Type
  1060 ;;  _pin_config     2   11[COMRAM] PTR const struct .
  1061 ;;		 -> lcd_2.lcd_data(8), lcd_2(10), lcd_1.lcd_data(4), lcd_1(6), 
  1062 ;;		 -> relay_initialize@pin_obj(1), led_initialize@pin_obj(1), 
  1063 ;; Auto vars:     Size  Location     Type
  1064 ;;  ret             1   14[COMRAM] unsigned char 
  1065 ;; Return value:  Size  Location     Type
  1066 ;;                  1    wreg      unsigned char 
  1067 ;; Registers used:
  1068 ;;		wreg, fsr2l, fsr2h, status,2, status,0, prodl, prodh, cstack
  1069 ;; Tracked objects:
  1070 ;;		On entry : 0/0
  1071 ;;		On exit  : 0/0
  1072 ;;		Unchanged: 0/0
  1073 ;; Data sizes:     COMRAM   BANK0   BANK1   BANK2   BANK3   BANK4   BANK5   BANK6   BANK7   BANK8   BANK9  BANK10  BANK1
      +1  BANK12  BANK13  BANK14  BANK15
  1074 ;;      Params:         2       0       0       0       0       0       0       0       0       0       0       0       
      +0       0       0       0       0
  1075 ;;      Locals:         1       0       0       0       0       0       0       0       0       0       0       0       
      +0       0       0       0       0
  1076 ;;      Temps:          1       0       0       0       0       0       0       0       0       0       0       0       
      +0       0       0       0       0
  1077 ;;      Totals:         4       0       0       0       0       0       0       0       0       0       0       0       
      +0       0       0       0       0
  1078 ;;Total ram usage:        4 bytes
  1079 ;; Hardware stack levels used: 1
  1080 ;; Hardware stack levels required when called: 3
  1081 ;; This function calls:
  1082 ;;		_gpio_pin_direction_intialize
  1083 ;;		_gpio_pin_write_logic
  1084 ;; This function is called by:
  1085 ;;		_relay_initialize
  1086 ;;		_seven_segment_initialize
  1087 ;;		_lcd_4bit_intialize
  1088 ;;		_lcd_8bit_intialize
  1089 ;;		_dc_motor_initialize
  1090 ;;		_keypad_initialize
  1091 ;;		_led_initialize
  1092 ;;		_CCP_Init
  1093 ;; This function uses a non-reentrant model
  1094 ;;
  1095                           
  1096                           	psect	text5
  1097   001858                     __ptext5:
  1098                           	callstack 0
  1099   001858                     _gpio_pin_intialize:
  1100                           	callstack 25
  1101   001858                     
  1102                           ;MCAL_Layer/GPIO/hal_gpio.c: 170:     if(((void*)0) == _pin_config || _pin_config->pin >
      +                           8 -1)
  1103   001858  5074               	movf	gpio_pin_intialize@_pin_config^0,w,c
  1104   00185A  1075               	iorwf	(gpio_pin_intialize@_pin_config+1)^0,w,c
  1105   00185C  B4D8               	btfsc	status,2,c
  1106   00185E  EF33  F00C         	goto	u3141
  1107   001862  EF35  F00C         	goto	u3140
  1108   001866                     u3141:
  1109   001866  EF46  F00C         	goto	l4865
  1110   00186A                     u3140:
  1111   00186A  C074  FFD9         	movff	gpio_pin_intialize@_pin_config,fsr2l
  1112   00186E  C075  FFDA         	movff	gpio_pin_intialize@_pin_config+1,fsr2h
  1113   001872  30DF               	rrcf	223,w,c
  1114   001874  32E8               	rrcf	wreg,f,c
  1115   001876  32E8               	rrcf	wreg,f,c
  1116   001878  0B07               	andlw	7
  1117   00187A  6E76               	movwf	??_gpio_pin_intialize^0,c
  1118   00187C  0E07               	movlw	7
  1119   00187E  6476               	cpfsgt	??_gpio_pin_intialize^0,c
  1120   001880  EF44  F00C         	goto	u3151
  1121   001884  EF46  F00C         	goto	u3150
  1122   001888                     u3151:
  1123   001888  EF4A  F00C         	goto	l4867
  1124   00188C                     u3150:
  1125   00188C                     l4865:
  1126                           
  1127                           ;MCAL_Layer/GPIO/hal_gpio.c: 171:     {;MCAL_Layer/GPIO/hal_gpio.c: 172:         ret = (
      +                          Std_ReturnType)0x00;
  1128   00188C  0E00               	movlw	0
  1129   00188E  6E77               	movwf	gpio_pin_intialize@ret^0,c
  1130                           
  1131                           ;MCAL_Layer/GPIO/hal_gpio.c: 173:     }
  1132   001890  EF60  F00C         	goto	l4869
  1133   001894                     l4867:
  1134                           
  1135                           ;MCAL_Layer/GPIO/hal_gpio.c: 175:     {;MCAL_Layer/GPIO/hal_gpio.c: 176:         ret = g
      +                          pio_pin_direction_intialize(_pin_config);
  1136   001894  C074  F06A         	movff	gpio_pin_intialize@_pin_config,gpio_pin_direction_intialize@_pin_config
  1137   001898  C075  F06B         	movff	gpio_pin_intialize@_pin_config+1,gpio_pin_direction_intialize@_pin_config+1
  1138   00189C  ECFE  F009         	call	_gpio_pin_direction_intialize	;wreg free
  1139   0018A0  6E77               	movwf	gpio_pin_intialize@ret^0,c
  1140                           
  1141                           ;MCAL_Layer/GPIO/hal_gpio.c: 177:         ret = gpio_pin_write_logic(_pin_config, _pin_c
      +                          onfig->logic);
  1142   0018A2  C074  F06A         	movff	gpio_pin_intialize@_pin_config,gpio_pin_write_logic@_pin_config
  1143   0018A6  C075  F06B         	movff	gpio_pin_intialize@_pin_config+1,gpio_pin_write_logic@_pin_config+1
  1144   0018AA  C074  FFD9         	movff	gpio_pin_intialize@_pin_config,fsr2l
  1145   0018AE  C075  FFDA         	movff	gpio_pin_intialize@_pin_config+1,fsr2h
  1146   0018B2  0E00               	movlw	0
  1147   0018B4  BEDF               	btfsc	indf2,7,c
  1148   0018B6  0E01               	movlw	1
  1149   0018B8  6E6C               	movwf	gpio_pin_write_logic@logic^0,c
  1150   0018BA  ECA0  F00A         	call	_gpio_pin_write_logic	;wreg free
  1151   0018BE  6E77               	movwf	gpio_pin_intialize@ret^0,c
  1152   0018C0                     l4869:
  1153                           
  1154                           ;MCAL_Layer/GPIO/hal_gpio.c: 179:     return ret;
  1155   0018C0  5077               	movf	gpio_pin_intialize@ret^0,w,c
  1156   0018C2  0012               	return		;funcret
  1157   0018C4                     __end_of_gpio_pin_intialize:
  1158                           	callstack 0
  1159                           
  1160 ;; *************** function _gpio_pin_write_logic *****************
  1161 ;; Defined at:
  1162 ;;		line 88 in file "MCAL_Layer/GPIO/hal_gpio.c"
  1163 ;; Parameters:    Size  Location     Type
  1164 ;;  _pin_config     2    1[COMRAM] PTR const struct .
  1165 ;;		 -> lcd_2.lcd_data(8), lcd_2(10), lcd_1.lcd_data(4), lcd_1(6), 
  1166 ;;		 -> relay_turn_off@pin_obj(1), relay_turn_on@pin_obj(1), relay_initialize@pin_obj(1), led_turn_off@pin_obj(1), 
  1167 ;;		 -> led_turn_on@pin_obj(1), led_initialize@pin_obj(1), 
  1168 ;;  logic           1    3[COMRAM] enum E2968
  1169 ;; Auto vars:     Size  Location     Type
  1170 ;;  ret             1   10[COMRAM] unsigned char 
  1171 ;; Return value:  Size  Location     Type
  1172 ;;                  1    wreg      unsigned char 
  1173 ;; Registers used:
  1174 ;;		wreg, fsr2l, fsr2h, status,2, status,0, prodl, prodh
  1175 ;; Tracked objects:
  1176 ;;		On entry : 0/0
  1177 ;;		On exit  : 0/0
  1178 ;;		Unchanged: 0/0
  1179 ;; Data sizes:     COMRAM   BANK0   BANK1   BANK2   BANK3   BANK4   BANK5   BANK6   BANK7   BANK8   BANK9  BANK10  BANK1
      +1  BANK12  BANK13  BANK14  BANK15
  1180 ;;      Params:         3       0       0       0       0       0       0       0       0       0       0       0       
      +0       0       0       0       0
  1181 ;;      Locals:         1       0       0       0       0       0       0       0       0       0       0       0       
      +0       0       0       0       0
  1182 ;;      Temps:          6       0       0       0       0       0       0       0       0       0       0       0       
      +0       0       0       0       0
  1183 ;;      Totals:        10       0       0       0       0       0       0       0       0       0       0       0       
      +0       0       0       0       0
  1184 ;;Total ram usage:       10 bytes
  1185 ;; Hardware stack levels used: 1
  1186 ;; Hardware stack levels required when called: 2
  1187 ;; This function calls:
  1188 ;;		Nothing
  1189 ;; This function is called by:
  1190 ;;		_relay_turn_on
  1191 ;;		_relay_turn_off
  1192 ;;		_gpio_pin_intialize
  1193 ;;		_seven_segment_write_number
  1194 ;;		_lcd_4bit_send_command
  1195 ;;		_lcd_4bit_send_char_data
  1196 ;;		_lcd_8bit_send_command
  1197 ;;		_lcd_8bit_send_char_data
  1198 ;;		_lcd_send_4bits
  1199 ;;		_lcd_4bit_send_enable_signal
  1200 ;;		_lcd_8bit_send_enable_signal
  1201 ;;		_dc_motor_move_right
  1202 ;;		_dc_motor_move_left
  1203 ;;		_dc_motor_stop
  1204 ;;		_keypad_get_value
  1205 ;;		_led_turn_on
  1206 ;;		_led_turn_off
  1207 ;; This function uses a non-reentrant model
  1208 ;;
  1209                           
  1210                           	psect	text6
  1211   001540                     __ptext6:
  1212                           	callstack 0
  1213   001540                     _gpio_pin_write_logic:
  1214                           	callstack 27
  1215   001540                     
  1216                           ;MCAL_Layer/GPIO/hal_gpio.c: 88: Std_ReturnType gpio_pin_write_logic(const pin_config_t 
      +                          *_pin_config, logic_t logic);MCAL_Layer/GPIO/hal_gpio.c: 89: {;MCAL_Layer/GPIO/hal_gpio.
      +                          c: 90:     Std_ReturnType ret = (Std_ReturnType)0x01;
  1217   001540  0E01               	movlw	1
  1218   001542  6E73               	movwf	gpio_pin_write_logic@ret^0,c
  1219   001544                     
  1220                           ;MCAL_Layer/GPIO/hal_gpio.c: 91:     if(((void*)0) == _pin_config || _pin_config->pin > 
      +                          8 -1)
  1221   001544  506A               	movf	gpio_pin_write_logic@_pin_config^0,w,c
  1222   001546  106B               	iorwf	(gpio_pin_write_logic@_pin_config+1)^0,w,c
  1223   001548  B4D8               	btfsc	status,2,c
  1224   00154A  EFA9  F00A         	goto	u3041
  1225   00154E  EFAB  F00A         	goto	u3040
  1226   001552                     u3041:
  1227   001552  EFBC  F00A         	goto	l4817
  1228   001556                     u3040:
  1229   001556  C06A  FFD9         	movff	gpio_pin_write_logic@_pin_config,fsr2l
  1230   00155A  C06B  FFDA         	movff	gpio_pin_write_logic@_pin_config+1,fsr2h
  1231   00155E  30DF               	rrcf	223,w,c
  1232   001560  32E8               	rrcf	wreg,f,c
  1233   001562  32E8               	rrcf	wreg,f,c
  1234   001564  0B07               	andlw	7
  1235   001566  6E6D               	movwf	??_gpio_pin_write_logic^0,c
  1236   001568  0E07               	movlw	7
  1237   00156A  646D               	cpfsgt	??_gpio_pin_write_logic^0,c
  1238   00156C  EFBA  F00A         	goto	u3051
  1239   001570  EFBC  F00A         	goto	u3050
  1240   001574                     u3051:
  1241   001574  EF1F  F00B         	goto	l4825
  1242   001578                     u3050:
  1243   001578                     l4817:
  1244                           
  1245                           ;MCAL_Layer/GPIO/hal_gpio.c: 92:     {;MCAL_Layer/GPIO/hal_gpio.c: 93:         ret = (St
      +                          d_ReturnType)0x00;
  1246   001578  0E00               	movlw	0
  1247   00157A  6E73               	movwf	gpio_pin_write_logic@ret^0,c
  1248                           
  1249                           ;MCAL_Layer/GPIO/hal_gpio.c: 94:     }
  1250   00157C  EF34  F00B         	goto	l4827
  1251   001580                     l4819:
  1252                           
  1253                           ;MCAL_Layer/GPIO/hal_gpio.c: 100:                 (*lat_registers[_pin_config->port] &= 
      +                          ~((uint8)1 << _pin_config->pin));
  1254   001580  C06A  FFD9         	movff	gpio_pin_write_logic@_pin_config,fsr2l
  1255   001584  C06B  FFDA         	movff	gpio_pin_write_logic@_pin_config+1,fsr2h
  1256   001588  30DF               	rrcf	223,w,c
  1257   00158A  32E8               	rrcf	wreg,f,c
  1258   00158C  32E8               	rrcf	wreg,f,c
  1259   00158E  0B07               	andlw	7
  1260   001590  6E6D               	movwf	??_gpio_pin_write_logic^0,c
  1261   001592  0E01               	movlw	1
  1262   001594  6E6E               	movwf	(??_gpio_pin_write_logic+1)^0,c
  1263   001596  2A6D               	incf	??_gpio_pin_write_logic^0,f,c
  1264   001598  EFD0  F00A         	goto	u3064
  1265   00159C                     u3065:
  1266   00159C  90D8               	bcf	status,0,c
  1267   00159E  366E               	rlcf	(??_gpio_pin_write_logic+1)^0,f,c
  1268   0015A0                     u3064:
  1269   0015A0  2E6D               	decfsz	??_gpio_pin_write_logic^0,f,c
  1270   0015A2  EFCE  F00A         	goto	u3065
  1271   0015A6  506E               	movf	(??_gpio_pin_write_logic+1)^0,w,c
  1272   0015A8  0AFF               	xorlw	255
  1273   0015AA  6E6F               	movwf	(??_gpio_pin_write_logic+2)^0,c
  1274   0015AC  C06A  FFD9         	movff	gpio_pin_write_logic@_pin_config,fsr2l
  1275   0015B0  C06B  FFDA         	movff	gpio_pin_write_logic@_pin_config+1,fsr2h
  1276   0015B4  50DF               	movf	223,w,c
  1277   0015B6  0B07               	andlw	7
  1278   0015B8  6E70               	movwf	(??_gpio_pin_write_logic+3)^0,c
  1279   0015BA  5070               	movf	(??_gpio_pin_write_logic+3)^0,w,c
  1280   0015BC  0D02               	mullw	2
  1281   0015BE  0E49               	movlw	low _lat_registers
  1282   0015C0  24F3               	addwf	243,w,c
  1283   0015C2  6ED9               	movwf	fsr2l,c
  1284   0015C4  0E00               	movlw	high _lat_registers
  1285   0015C6  20F4               	addwfc	prodh,w,c
  1286   0015C8  6EDA               	movwf	fsr2h,c
  1287   0015CA  CFDE F071          	movff	postinc2,??_gpio_pin_write_logic+4
  1288   0015CE  CFDD F072          	movff	postdec2,??_gpio_pin_write_logic+5
  1289   0015D2  C071  FFD9         	movff	??_gpio_pin_write_logic+4,fsr2l
  1290   0015D6  C072  FFDA         	movff	??_gpio_pin_write_logic+5,fsr2h
  1291   0015DA  506F               	movf	(??_gpio_pin_write_logic+2)^0,w,c
  1292   0015DC  16DF               	andwf	indf2,f,c
  1293                           
  1294                           ;MCAL_Layer/GPIO/hal_gpio.c: 101:                 break;
  1295   0015DE  EF34  F00B         	goto	l4827
  1296   0015E2                     l4821:
  1297                           
  1298                           ;MCAL_Layer/GPIO/hal_gpio.c: 103:                 (*lat_registers[_pin_config->port] |= 
      +                          ((uint8)1 << _pin_config->pin));
  1299   0015E2  C06A  FFD9         	movff	gpio_pin_write_logic@_pin_config,fsr2l
  1300   0015E6  C06B  FFDA         	movff	gpio_pin_write_logic@_pin_config+1,fsr2h
  1301   0015EA  30DF               	rrcf	223,w,c
  1302   0015EC  32E8               	rrcf	wreg,f,c
  1303   0015EE  32E8               	rrcf	wreg,f,c
  1304   0015F0  0B07               	andlw	7
  1305   0015F2  6E6D               	movwf	??_gpio_pin_write_logic^0,c
  1306   0015F4  0E01               	movlw	1
  1307   0015F6  6E6E               	movwf	(??_gpio_pin_write_logic+1)^0,c
  1308   0015F8  2A6D               	incf	??_gpio_pin_write_logic^0,f,c
  1309   0015FA  EF01  F00B         	goto	u3074
  1310   0015FE                     u3075:
  1311   0015FE  90D8               	bcf	status,0,c
  1312   001600  366E               	rlcf	(??_gpio_pin_write_logic+1)^0,f,c
  1313   001602                     u3074:
  1314   001602  2E6D               	decfsz	??_gpio_pin_write_logic^0,f,c
  1315   001604  EFFF  F00A         	goto	u3075
  1316   001608  C06A  FFD9         	movff	gpio_pin_write_logic@_pin_config,fsr2l
  1317   00160C  C06B  FFDA         	movff	gpio_pin_write_logic@_pin_config+1,fsr2h
  1318   001610  50DF               	movf	223,w,c
  1319   001612  0B07               	andlw	7
  1320   001614  6E6F               	movwf	(??_gpio_pin_write_logic+2)^0,c
  1321   001616  506F               	movf	(??_gpio_pin_write_logic+2)^0,w,c
  1322   001618  0D02               	mullw	2
  1323   00161A  0E49               	movlw	low _lat_registers
  1324   00161C  24F3               	addwf	243,w,c
  1325   00161E  6ED9               	movwf	fsr2l,c
  1326   001620  0E00               	movlw	high _lat_registers
  1327   001622  20F4               	addwfc	prodh,w,c
  1328   001624  6EDA               	movwf	fsr2h,c
  1329   001626  CFDE F070          	movff	postinc2,??_gpio_pin_write_logic+3
  1330   00162A  CFDD F071          	movff	postdec2,??_gpio_pin_write_logic+4
  1331   00162E  C070  FFD9         	movff	??_gpio_pin_write_logic+3,fsr2l
  1332   001632  C071  FFDA         	movff	??_gpio_pin_write_logic+4,fsr2h
  1333   001636  506E               	movf	(??_gpio_pin_write_logic+1)^0,w,c
  1334   001638  12DF               	iorwf	indf2,f,c
  1335                           
  1336                           ;MCAL_Layer/GPIO/hal_gpio.c: 104:                 break;
  1337   00163A  EF34  F00B         	goto	l4827
  1338   00163E                     l4825:
  1339   00163E  506C               	movf	gpio_pin_write_logic@logic^0,w,c
  1340   001640  6E6D               	movwf	??_gpio_pin_write_logic^0,c
  1341   001642  6A6E               	clrf	(??_gpio_pin_write_logic+1)^0,c
  1342                           
  1343                           ; Switch on 2 bytes has been partitioned into a top level switch of size 1, and 1 sub-sw
      +                          itches
  1344                           ; Switch size 1, requested type "simple"
  1345                           ; Number of cases is 1, Range of values is 0 to 0
  1346                           ; switch strategies available:
  1347                           ; Name         Instructions Cycles
  1348                           ; simple_byte            4     3 (average)
  1349                           ;	Chosen strategy is simple_byte
  1350   001644  506E               	movf	(??_gpio_pin_write_logic+1)^0,w,c
  1351   001646  0A00               	xorlw	0	; case 0
  1352   001648  B4D8               	btfsc	status,2,c
  1353   00164A  EF29  F00B         	goto	l5701
  1354   00164E  EFBC  F00A         	goto	l4817
  1355   001652                     l5701:
  1356                           
  1357                           ; Switch size 1, requested type "simple"
  1358                           ; Number of cases is 2, Range of values is 0 to 1
  1359                           ; switch strategies available:
  1360                           ; Name         Instructions Cycles
  1361                           ; simple_byte            7     4 (average)
  1362                           ;	Chosen strategy is simple_byte
  1363   001652  506D               	movf	??_gpio_pin_write_logic^0,w,c
  1364   001654  0A00               	xorlw	0	; case 0
  1365   001656  B4D8               	btfsc	status,2,c
  1366   001658  EFC0  F00A         	goto	l4819
  1367   00165C  0A01               	xorlw	1	; case 1
  1368   00165E  B4D8               	btfsc	status,2,c
  1369   001660  EFF1  F00A         	goto	l4821
  1370   001664  EFBC  F00A         	goto	l4817
  1371   001668                     l4827:
  1372                           
  1373                           ;MCAL_Layer/GPIO/hal_gpio.c: 108:     return ret;
  1374   001668  5073               	movf	gpio_pin_write_logic@ret^0,w,c
  1375   00166A  0012               	return		;funcret
  1376   00166C                     __end_of_gpio_pin_write_logic:
  1377                           	callstack 0
  1378                           
  1379 ;; *************** function _gpio_pin_direction_intialize *****************
  1380 ;; Defined at:
  1381 ;;		line 31 in file "MCAL_Layer/GPIO/hal_gpio.c"
  1382 ;; Parameters:    Size  Location     Type
  1383 ;;  _pin_config     2    1[COMRAM] PTR const struct .
  1384 ;;		 -> lcd_2.lcd_data(8), lcd_2(10), lcd_1.lcd_data(4), lcd_1(6), 
  1385 ;;		 -> relay_initialize@pin_obj(1), led_initialize@pin_obj(1), 
  1386 ;; Auto vars:     Size  Location     Type
  1387 ;;  ret             1    9[COMRAM] unsigned char 
  1388 ;; Return value:  Size  Location     Type
  1389 ;;                  1    wreg      unsigned char 
  1390 ;; Registers used:
  1391 ;;		wreg, fsr2l, fsr2h, status,2, status,0, prodl, prodh
  1392 ;; Tracked objects:
  1393 ;;		On entry : 0/0
  1394 ;;		On exit  : 0/0
  1395 ;;		Unchanged: 0/0
  1396 ;; Data sizes:     COMRAM   BANK0   BANK1   BANK2   BANK3   BANK4   BANK5   BANK6   BANK7   BANK8   BANK9  BANK10  BANK1
      +1  BANK12  BANK13  BANK14  BANK15
  1397 ;;      Params:         2       0       0       0       0       0       0       0       0       0       0       0       
      +0       0       0       0       0
  1398 ;;      Locals:         1       0       0       0       0       0       0       0       0       0       0       0       
      +0       0       0       0       0
  1399 ;;      Temps:          6       0       0       0       0       0       0       0       0       0       0       0       
      +0       0       0       0       0
  1400 ;;      Totals:         9       0       0       0       0       0       0       0       0       0       0       0       
      +0       0       0       0       0
  1401 ;;Total ram usage:        9 bytes
  1402 ;; Hardware stack levels used: 1
  1403 ;; Hardware stack levels required when called: 2
  1404 ;; This function calls:
  1405 ;;		Nothing
  1406 ;; This function is called by:
  1407 ;;		_gpio_pin_intialize
  1408 ;;		_button_initialize
  1409 ;;		_keypad_initialize
  1410 ;;		_Interrupt_RBx_Init
  1411 ;;		_Interrupt_INTx_Pin_Init
  1412 ;; This function uses a non-reentrant model
  1413 ;;
  1414                           
  1415                           	psect	text7
  1416   0013FC                     __ptext7:
  1417                           	callstack 0
  1418   0013FC                     _gpio_pin_direction_intialize:
  1419                           	callstack 25
  1420   0013FC                     
  1421                           ;MCAL_Layer/GPIO/hal_gpio.c: 31: Std_ReturnType gpio_pin_direction_intialize(const pin_c
      +                          onfig_t *_pin_config);MCAL_Layer/GPIO/hal_gpio.c: 32: {;MCAL_Layer/GPIO/hal_gpio.c: 33: 
      +                              Std_ReturnType ret = (Std_ReturnType)0x01;
  1422   0013FC  0E01               	movlw	1
  1423   0013FE  6E72               	movwf	gpio_pin_direction_intialize@ret^0,c
  1424   001400                     
  1425                           ;MCAL_Layer/GPIO/hal_gpio.c: 34:     if(((void*)0) == _pin_config || _pin_config->pin > 
      +                          8 -1)
  1426   001400  506A               	movf	gpio_pin_direction_intialize@_pin_config^0,w,c
  1427   001402  106B               	iorwf	(gpio_pin_direction_intialize@_pin_config+1)^0,w,c
  1428   001404  B4D8               	btfsc	status,2,c
  1429   001406  EF07  F00A         	goto	u3081
  1430   00140A  EF09  F00A         	goto	u3080
  1431   00140E                     u3081:
  1432   00140E  EF1A  F00A         	goto	l4841
  1433   001412                     u3080:
  1434   001412  C06A  FFD9         	movff	gpio_pin_direction_intialize@_pin_config,fsr2l
  1435   001416  C06B  FFDA         	movff	gpio_pin_direction_intialize@_pin_config+1,fsr2h
  1436   00141A  30DF               	rrcf	223,w,c
  1437   00141C  32E8               	rrcf	wreg,f,c
  1438   00141E  32E8               	rrcf	wreg,f,c
  1439   001420  0B07               	andlw	7
  1440   001422  6E6C               	movwf	??_gpio_pin_direction_intialize^0,c
  1441   001424  0E07               	movlw	7
  1442   001426  646C               	cpfsgt	??_gpio_pin_direction_intialize^0,c
  1443   001428  EF18  F00A         	goto	u3091
  1444   00142C  EF1A  F00A         	goto	u3090
  1445   001430                     u3091:
  1446   001430  EF7D  F00A         	goto	l4849
  1447   001434                     u3090:
  1448   001434                     l4841:
  1449                           
  1450                           ;MCAL_Layer/GPIO/hal_gpio.c: 35:     {;MCAL_Layer/GPIO/hal_gpio.c: 36:         ret = (St
      +                          d_ReturnType)0x00;
  1451   001434  0E00               	movlw	0
  1452   001436  6E72               	movwf	gpio_pin_direction_intialize@ret^0,c
  1453                           
  1454                           ;MCAL_Layer/GPIO/hal_gpio.c: 37:     }
  1455   001438  EF9E  F00A         	goto	l4851
  1456   00143C                     l4843:
  1457                           
  1458                           ;MCAL_Layer/GPIO/hal_gpio.c: 43:                 (*tris_registers[_pin_config->port] &= 
      +                          ~((uint8)1 << _pin_config->pin));
  1459   00143C  C06A  FFD9         	movff	gpio_pin_direction_intialize@_pin_config,fsr2l
  1460   001440  C06B  FFDA         	movff	gpio_pin_direction_intialize@_pin_config+1,fsr2h
  1461   001444  30DF               	rrcf	223,w,c
  1462   001446  32E8               	rrcf	wreg,f,c
  1463   001448  32E8               	rrcf	wreg,f,c
  1464   00144A  0B07               	andlw	7
  1465   00144C  6E6C               	movwf	??_gpio_pin_direction_intialize^0,c
  1466   00144E  0E01               	movlw	1
  1467   001450  6E6D               	movwf	(??_gpio_pin_direction_intialize+1)^0,c
  1468   001452  2A6C               	incf	??_gpio_pin_direction_intialize^0,f,c
  1469   001454  EF2E  F00A         	goto	u3104
  1470   001458                     u3105:
  1471   001458  90D8               	bcf	status,0,c
  1472   00145A  366D               	rlcf	(??_gpio_pin_direction_intialize+1)^0,f,c
  1473   00145C                     u3104:
  1474   00145C  2E6C               	decfsz	??_gpio_pin_direction_intialize^0,f,c
  1475   00145E  EF2C  F00A         	goto	u3105
  1476   001462  506D               	movf	(??_gpio_pin_direction_intialize+1)^0,w,c
  1477   001464  0AFF               	xorlw	255
  1478   001466  6E6E               	movwf	(??_gpio_pin_direction_intialize+2)^0,c
  1479   001468  C06A  FFD9         	movff	gpio_pin_direction_intialize@_pin_config,fsr2l
  1480   00146C  C06B  FFDA         	movff	gpio_pin_direction_intialize@_pin_config+1,fsr2h
  1481   001470  50DF               	movf	223,w,c
  1482   001472  0B07               	andlw	7
  1483   001474  6E6F               	movwf	(??_gpio_pin_direction_intialize+3)^0,c
  1484   001476  506F               	movf	(??_gpio_pin_direction_intialize+3)^0,w,c
  1485   001478  0D02               	mullw	2
  1486   00147A  0E53               	movlw	low _tris_registers
  1487   00147C  24F3               	addwf	243,w,c
  1488   00147E  6ED9               	movwf	fsr2l,c
  1489   001480  0E00               	movlw	high _tris_registers
  1490   001482  20F4               	addwfc	prodh,w,c
  1491   001484  6EDA               	movwf	fsr2h,c
  1492   001486  CFDE F070          	movff	postinc2,??_gpio_pin_direction_intialize+4
  1493   00148A  CFDD F071          	movff	postdec2,??_gpio_pin_direction_intialize+5
  1494   00148E  C070  FFD9         	movff	??_gpio_pin_direction_intialize+4,fsr2l
  1495   001492  C071  FFDA         	movff	??_gpio_pin_direction_intialize+5,fsr2h
  1496   001496  506E               	movf	(??_gpio_pin_direction_intialize+2)^0,w,c
  1497   001498  16DF               	andwf	indf2,f,c
  1498                           
  1499                           ;MCAL_Layer/GPIO/hal_gpio.c: 44:                 break;
  1500   00149A  EF9E  F00A         	goto	l4851
  1501   00149E                     l4845:
  1502                           
  1503                           ;MCAL_Layer/GPIO/hal_gpio.c: 46:                 (*tris_registers[_pin_config->port] |= 
      +                          ((uint8)1 << _pin_config->pin));
  1504   00149E  C06A  FFD9         	movff	gpio_pin_direction_intialize@_pin_config,fsr2l
  1505   0014A2  C06B  FFDA         	movff	gpio_pin_direction_intialize@_pin_config+1,fsr2h
  1506   0014A6  30DF               	rrcf	223,w,c
  1507   0014A8  32E8               	rrcf	wreg,f,c
  1508   0014AA  32E8               	rrcf	wreg,f,c
  1509   0014AC  0B07               	andlw	7
  1510   0014AE  6E6C               	movwf	??_gpio_pin_direction_intialize^0,c
  1511   0014B0  0E01               	movlw	1
  1512   0014B2  6E6D               	movwf	(??_gpio_pin_direction_intialize+1)^0,c
  1513   0014B4  2A6C               	incf	??_gpio_pin_direction_intialize^0,f,c
  1514   0014B6  EF5F  F00A         	goto	u3114
  1515   0014BA                     u3115:
  1516   0014BA  90D8               	bcf	status,0,c
  1517   0014BC  366D               	rlcf	(??_gpio_pin_direction_intialize+1)^0,f,c
  1518   0014BE                     u3114:
  1519   0014BE  2E6C               	decfsz	??_gpio_pin_direction_intialize^0,f,c
  1520   0014C0  EF5D  F00A         	goto	u3115
  1521   0014C4  C06A  FFD9         	movff	gpio_pin_direction_intialize@_pin_config,fsr2l
  1522   0014C8  C06B  FFDA         	movff	gpio_pin_direction_intialize@_pin_config+1,fsr2h
  1523   0014CC  50DF               	movf	223,w,c
  1524   0014CE  0B07               	andlw	7
  1525   0014D0  6E6E               	movwf	(??_gpio_pin_direction_intialize+2)^0,c
  1526   0014D2  506E               	movf	(??_gpio_pin_direction_intialize+2)^0,w,c
  1527   0014D4  0D02               	mullw	2
  1528   0014D6  0E53               	movlw	low _tris_registers
  1529   0014D8  24F3               	addwf	243,w,c
  1530   0014DA  6ED9               	movwf	fsr2l,c
  1531   0014DC  0E00               	movlw	high _tris_registers
  1532   0014DE  20F4               	addwfc	prodh,w,c
  1533   0014E0  6EDA               	movwf	fsr2h,c
  1534   0014E2  CFDE F06F          	movff	postinc2,??_gpio_pin_direction_intialize+3
  1535   0014E6  CFDD F070          	movff	postdec2,??_gpio_pin_direction_intialize+4
  1536   0014EA  C06F  FFD9         	movff	??_gpio_pin_direction_intialize+3,fsr2l
  1537   0014EE  C070  FFDA         	movff	??_gpio_pin_direction_intialize+4,fsr2h
  1538   0014F2  506D               	movf	(??_gpio_pin_direction_intialize+1)^0,w,c
  1539   0014F4  12DF               	iorwf	indf2,f,c
  1540                           
  1541                           ;MCAL_Layer/GPIO/hal_gpio.c: 47:                 break;
  1542   0014F6  EF9E  F00A         	goto	l4851
  1543   0014FA                     l4849:
  1544   0014FA  C06A  FFD9         	movff	gpio_pin_direction_intialize@_pin_config,fsr2l
  1545   0014FE  C06B  FFDA         	movff	gpio_pin_direction_intialize@_pin_config+1,fsr2h
  1546   001502  BCDF               	btfsc	indf2,6,c
  1547   001504  EF86  F00A         	goto	u3121
  1548   001508  EF89  F00A         	goto	u3120
  1549   00150C                     u3121:
  1550   00150C  0E01               	movlw	1
  1551   00150E  EF8A  F00A         	goto	u3130
  1552   001512                     u3120:
  1553   001512  0E00               	movlw	0
  1554   001514                     u3130:
  1555   001514  6E6C               	movwf	??_gpio_pin_direction_intialize^0,c
  1556   001516  6A6D               	clrf	(??_gpio_pin_direction_intialize+1)^0,c
  1557                           
  1558                           ; Switch on 2 bytes has been partitioned into a top level switch of size 1, and 1 sub-sw
      +                          itches
  1559                           ; Switch size 1, requested type "simple"
  1560                           ; Number of cases is 1, Range of values is 0 to 0
  1561                           ; switch strategies available:
  1562                           ; Name         Instructions Cycles
  1563                           ; simple_byte            4     3 (average)
  1564                           ;	Chosen strategy is simple_byte
  1565   001518  506D               	movf	(??_gpio_pin_direction_intialize+1)^0,w,c
  1566   00151A  0A00               	xorlw	0	; case 0
  1567   00151C  B4D8               	btfsc	status,2,c
  1568   00151E  EF93  F00A         	goto	l5703
  1569   001522  EF1A  F00A         	goto	l4841
  1570   001526                     l5703:
  1571                           
  1572                           ; Switch size 1, requested type "simple"
  1573                           ; Number of cases is 2, Range of values is 0 to 1
  1574                           ; switch strategies available:
  1575                           ; Name         Instructions Cycles
  1576                           ; simple_byte            7     4 (average)
  1577                           ;	Chosen strategy is simple_byte
  1578   001526  506C               	movf	??_gpio_pin_direction_intialize^0,w,c
  1579   001528  0A00               	xorlw	0	; case 0
  1580   00152A  B4D8               	btfsc	status,2,c
  1581   00152C  EF1E  F00A         	goto	l4843
  1582   001530  0A01               	xorlw	1	; case 1
  1583   001532  B4D8               	btfsc	status,2,c
  1584   001534  EF4F  F00A         	goto	l4845
  1585   001538  EF1A  F00A         	goto	l4841
  1586   00153C                     l4851:
  1587                           
  1588                           ;MCAL_Layer/GPIO/hal_gpio.c: 51:     return ret;
  1589   00153C  5072               	movf	gpio_pin_direction_intialize@ret^0,w,c
  1590   00153E  0012               	return		;funcret
  1591   001540                     __end_of_gpio_pin_direction_intialize:
  1592                           	callstack 0
  1593                           
  1594 ;; *************** function _InterruptManager *****************
  1595 ;; Defined at:
  1596 ;;		line 46 in file "MCAL_Layer/Interrupt/mcal_interrupt_manager.c"
  1597 ;; Parameters:    Size  Location     Type
  1598 ;;		None
  1599 ;; Auto vars:     Size  Location     Type
  1600 ;;		None
  1601 ;; Return value:  Size  Location     Type
  1602 ;;                  1    wreg      void 
  1603 ;; Registers used:
  1604 ;;		wreg, status,2, status,0, cstack
  1605 ;; Tracked objects:
  1606 ;;		On entry : 0/0
  1607 ;;		On exit  : 0/0
  1608 ;;		Unchanged: 0/0
  1609 ;; Data sizes:     COMRAM   BANK0   BANK1   BANK2   BANK3   BANK4   BANK5   BANK6   BANK7   BANK8   BANK9  BANK10  BANK1
      +1  BANK12  BANK13  BANK14  BANK15
  1610 ;;      Params:         0       0       0       0       0       0       0       0       0       0       0       0       
      +0       0       0       0       0
  1611 ;;      Locals:         0       0       0       0       0       0       0       0       0       0       0       0       
      +0       0       0       0       0
  1612 ;;      Temps:          0       0       0       0       0       0       0       0       0       0       0       0       
      +0       0       0       0       0
  1613 ;;      Totals:         0       0       0       0       0       0       0       0       0       0       0       0       
      +0       0       0       0       0
  1614 ;;Total ram usage:        0 bytes
  1615 ;; Hardware stack levels used: 1
  1616 ;; Hardware stack levels required when called: 1
  1617 ;; This function calls:
  1618 ;;		_ADC_ISR
  1619 ;;		_CCP1_ISR
  1620 ;;		_CCP2_ISR
  1621 ;;		_INT0_ISR
  1622 ;;		_INT1_ISR
  1623 ;;		_INT2_ISR
  1624 ;;		_MSSP_I2C_BC_ISR
  1625 ;;		_MSSP_I2C_ISR
  1626 ;;		_RB4_ISR
  1627 ;;		_RB5_ISR
  1628 ;;		_RB6_ISR
  1629 ;;		_RB7_ISR
  1630 ;;		_TMR0_ISR
  1631 ;;		_TMR1_ISR
  1632 ;;		_TMR2_ISR
  1633 ;;		_TMR3_ISR
  1634 ;;		_USART_RX_ISR
  1635 ;;		_USART_TX_ISR
  1636 ;; This function is called by:
  1637 ;;		Interrupt level 2
  1638 ;; This function uses a non-reentrant model
  1639 ;;
  1640                           
  1641                           	psect	intcode
  1642   000008                     __pintcode:
  1643                           	callstack 0
  1644   000008                     _InterruptManager:
  1645                           	callstack 25
  1646                           
  1647                           ;incstack = 0
  1648   000008  827D               	bsf	int$flags,1,c	;set compiler interrupt flag (level 2)
  1649   00000A  ED0B  F008         	call	int_func,f	;refresh shadow registers
  1650                           
  1651                           	psect	intcode_body
  1652   001016                     __pintcode_body:
  1653                           	callstack 25
  1654   001016                     int_func:
  1655                           	callstack 25
  1656   001016  0006               	pop		; remove dummy address from shadow register refresh
  1657   001018                     
  1658                           ;MCAL_Layer/Interrupt/mcal_interrupt_manager.c: 49:     if((1 == INTCONbits.INT0IE) && (
      +                          1 == INTCONbits.INT0IF))
  1659   001018  A8F2               	btfss	242,4,c	;volatile
  1660   00101A  EF11  F008         	goto	i2u193_41
  1661   00101E  EF13  F008         	goto	i2u193_40
  1662   001022                     i2u193_41:
  1663   001022  EF1C  F008         	goto	i2l1160
  1664   001026                     i2u193_40:
  1665   001026  A2F2               	btfss	242,1,c	;volatile
  1666   001028  EF18  F008         	goto	i2u194_41
  1667   00102C  EF1A  F008         	goto	i2u194_40
  1668   001030                     i2u194_41:
  1669   001030  EF1C  F008         	goto	i2l1160
  1670   001034                     i2u194_40:
  1671   001034                     
  1672                           ;MCAL_Layer/Interrupt/mcal_interrupt_manager.c: 50:     {;MCAL_Layer/Interrupt/mcal_inte
      +                          rrupt_manager.c: 51:         INT0_ISR();
  1673   001034  EC08  F00D         	call	_INT0_ISR	;wreg free
  1674   001038                     i2l1160:
  1675                           
  1676                           ;MCAL_Layer/Interrupt/mcal_interrupt_manager.c: 54:     if((1 == INTCON3bits.INT1E) && (
      +                          1 == INTCON3bits.INT1F))
  1677   001038  A6F0               	btfss	240,3,c	;volatile
  1678   00103A  EF21  F008         	goto	i2u195_41
  1679   00103E  EF23  F008         	goto	i2u195_40
  1680   001042                     i2u195_41:
  1681   001042  EF2C  F008         	goto	i2l1162
  1682   001046                     i2u195_40:
  1683   001046  A0F0               	btfss	240,0,c	;volatile
  1684   001048  EF28  F008         	goto	i2u196_41
  1685   00104C  EF2A  F008         	goto	i2u196_40
  1686   001050                     i2u196_41:
  1687   001050  EF2C  F008         	goto	i2l1162
  1688   001054                     i2u196_40:
  1689   001054                     
  1690                           ;MCAL_Layer/Interrupt/mcal_interrupt_manager.c: 55:     {;MCAL_Layer/Interrupt/mcal_inte
      +                          rrupt_manager.c: 56:         INT1_ISR();
  1691   001054  EC06  F00D         	call	_INT1_ISR	;wreg free
  1692   001058                     i2l1162:
  1693                           
  1694                           ;MCAL_Layer/Interrupt/mcal_interrupt_manager.c: 59:     if((1 == INTCON3bits.INT2IE) && 
      +                          (1 == INTCON3bits.INT2IF))
  1695   001058  A8F0               	btfss	240,4,c	;volatile
  1696   00105A  EF31  F008         	goto	i2u197_41
  1697   00105E  EF33  F008         	goto	i2u197_40
  1698   001062                     i2u197_41:
  1699   001062  EF3C  F008         	goto	i2l1164
  1700   001066                     i2u197_40:
  1701   001066  A2F0               	btfss	240,1,c	;volatile
  1702   001068  EF38  F008         	goto	i2u198_41
  1703   00106C  EF3A  F008         	goto	i2u198_40
  1704   001070                     i2u198_41:
  1705   001070  EF3C  F008         	goto	i2l1164
  1706   001074                     i2u198_40:
  1707   001074                     
  1708                           ;MCAL_Layer/Interrupt/mcal_interrupt_manager.c: 60:     {;MCAL_Layer/Interrupt/mcal_inte
      +                          rrupt_manager.c: 61:         INT2_ISR();
  1709   001074  EC04  F00D         	call	_INT2_ISR	;wreg free
  1710   001078                     i2l1164:
  1711                           
  1712                           ;MCAL_Layer/Interrupt/mcal_interrupt_manager.c: 67:     if((1 == INTCONbits.RBIE) && (1 
      +                          == INTCONbits.RBIF) &&
  1713   001078  A6F2               	btfss	242,3,c	;volatile
  1714   00107A  EF41  F008         	goto	i2u199_41
  1715   00107E  EF43  F008         	goto	i2u199_40
  1716   001082                     i2u199_41:
  1717   001082  EF5E  F008         	goto	i2l1166
  1718   001086                     i2u199_40:
  1719   001086  A0F2               	btfss	242,0,c	;volatile
  1720   001088  EF48  F008         	goto	i2u200_41
  1721   00108C  EF4A  F008         	goto	i2u200_40
  1722   001090                     i2u200_41:
  1723   001090  EF5E  F008         	goto	i2l1166
  1724   001094                     i2u200_40:
  1725   001094  A881               	btfss	129,4,c	;volatile
  1726   001096  EF4F  F008         	goto	i2u201_41
  1727   00109A  EF51  F008         	goto	i2u201_40
  1728   00109E                     i2u201_41:
  1729   00109E  EF5E  F008         	goto	i2l1166
  1730   0010A2                     i2u201_40:
  1731   0010A2  0460               	decf	_RB4_Flag^0,w,c	;volatile
  1732   0010A4  A4D8               	btfss	status,2,c
  1733   0010A6  EF57  F008         	goto	i2u202_41
  1734   0010AA  EF59  F008         	goto	i2u202_40
  1735   0010AE                     i2u202_41:
  1736   0010AE  EF5E  F008         	goto	i2l1166
  1737   0010B2                     i2u202_40:
  1738   0010B2                     
  1739                           ;MCAL_Layer/Interrupt/mcal_interrupt_manager.c: 69:     {;MCAL_Layer/Interrupt/mcal_inte
      +                          rrupt_manager.c: 70:         RB4_Flag = 0;
  1740   0010B2  0E00               	movlw	0
  1741   0010B4  6E60               	movwf	_RB4_Flag^0,c	;volatile
  1742   0010B6                     
  1743                           ;MCAL_Layer/Interrupt/mcal_interrupt_manager.c: 71:         RB4_ISR(0);
  1744   0010B6  0E00               	movlw	0
  1745   0010B8  ECD1  F00C         	call	_RB4_ISR
  1746   0010BC                     i2l1166:
  1747                           
  1748                           ;MCAL_Layer/Interrupt/mcal_interrupt_manager.c: 74:     if((1 == INTCONbits.RBIE) && (1 
      +                          == INTCONbits.RBIF) &&
  1749   0010BC  A6F2               	btfss	242,3,c	;volatile
  1750   0010BE  EF63  F008         	goto	i2u203_41
  1751   0010C2  EF65  F008         	goto	i2u203_40
  1752   0010C6                     i2u203_41:
  1753   0010C6  EF80  F008         	goto	i2l1168
  1754   0010CA                     i2u203_40:
  1755   0010CA  A0F2               	btfss	242,0,c	;volatile
  1756   0010CC  EF6A  F008         	goto	i2u204_41
  1757   0010D0  EF6C  F008         	goto	i2u204_40
  1758   0010D4                     i2u204_41:
  1759   0010D4  EF80  F008         	goto	i2l1168
  1760   0010D8                     i2u204_40:
  1761   0010D8  B881               	btfsc	129,4,c	;volatile
  1762   0010DA  EF71  F008         	goto	i2u205_41
  1763   0010DE  EF73  F008         	goto	i2u205_40
  1764   0010E2                     i2u205_41:
  1765   0010E2  EF80  F008         	goto	i2l1168
  1766   0010E6                     i2u205_40:
  1767   0010E6  5060               	movf	_RB4_Flag^0,w,c	;volatile
  1768   0010E8  A4D8               	btfss	status,2,c
  1769   0010EA  EF79  F008         	goto	i2u206_41
  1770   0010EE  EF7B  F008         	goto	i2u206_40
  1771   0010F2                     i2u206_41:
  1772   0010F2  EF80  F008         	goto	i2l1168
  1773   0010F6                     i2u206_40:
  1774   0010F6                     
  1775                           ;MCAL_Layer/Interrupt/mcal_interrupt_manager.c: 76:     {;MCAL_Layer/Interrupt/mcal_inte
      +                          rrupt_manager.c: 77:         RB4_Flag = 1;
  1776   0010F6  0E01               	movlw	1
  1777   0010F8  6E60               	movwf	_RB4_Flag^0,c	;volatile
  1778   0010FA                     
  1779                           ;MCAL_Layer/Interrupt/mcal_interrupt_manager.c: 78:         RB4_ISR(1);
  1780   0010FA  0E01               	movlw	1
  1781   0010FC  ECD1  F00C         	call	_RB4_ISR
  1782   001100                     i2l1168:
  1783                           
  1784                           ;MCAL_Layer/Interrupt/mcal_interrupt_manager.c: 81:     if((1 == INTCONbits.RBIE) && (1 
      +                          == INTCONbits.RBIF) &&
  1785   001100  A6F2               	btfss	242,3,c	;volatile
  1786   001102  EF85  F008         	goto	i2u207_41
  1787   001106  EF87  F008         	goto	i2u207_40
  1788   00110A                     i2u207_41:
  1789   00110A  EFA2  F008         	goto	i2l1170
  1790   00110E                     i2u207_40:
  1791   00110E  A0F2               	btfss	242,0,c	;volatile
  1792   001110  EF8C  F008         	goto	i2u208_41
  1793   001114  EF8E  F008         	goto	i2u208_40
  1794   001118                     i2u208_41:
  1795   001118  EFA2  F008         	goto	i2l1170
  1796   00111C                     i2u208_40:
  1797   00111C  AA81               	btfss	129,5,c	;volatile
  1798   00111E  EF93  F008         	goto	i2u209_41
  1799   001122  EF95  F008         	goto	i2u209_40
  1800   001126                     i2u209_41:
  1801   001126  EFA2  F008         	goto	i2l1170
  1802   00112A                     i2u209_40:
  1803   00112A  045F               	decf	_RB5_Flag^0,w,c	;volatile
  1804   00112C  A4D8               	btfss	status,2,c
  1805   00112E  EF9B  F008         	goto	i2u210_41
  1806   001132  EF9D  F008         	goto	i2u210_40
  1807   001136                     i2u210_41:
  1808   001136  EFA2  F008         	goto	i2l1170
  1809   00113A                     i2u210_40:
  1810   00113A                     
  1811                           ;MCAL_Layer/Interrupt/mcal_interrupt_manager.c: 83:     {;MCAL_Layer/Interrupt/mcal_inte
      +                          rrupt_manager.c: 84:         RB5_Flag = 0;
  1812   00113A  0E00               	movlw	0
  1813   00113C  6E5F               	movwf	_RB5_Flag^0,c	;volatile
  1814   00113E                     
  1815                           ;MCAL_Layer/Interrupt/mcal_interrupt_manager.c: 85:         RB5_ISR(0);
  1816   00113E  0E00               	movlw	0
  1817   001140  ECC4  F00C         	call	_RB5_ISR
  1818   001144                     i2l1170:
  1819                           
  1820                           ;MCAL_Layer/Interrupt/mcal_interrupt_manager.c: 88:     if((1 == INTCONbits.RBIE) && (1 
      +                          == INTCONbits.RBIF) &&
  1821   001144  A6F2               	btfss	242,3,c	;volatile
  1822   001146  EFA7  F008         	goto	i2u211_41
  1823   00114A  EFA9  F008         	goto	i2u211_40
  1824   00114E                     i2u211_41:
  1825   00114E  EFC4  F008         	goto	i2l1172
  1826   001152                     i2u211_40:
  1827   001152  A0F2               	btfss	242,0,c	;volatile
  1828   001154  EFAE  F008         	goto	i2u212_41
  1829   001158  EFB0  F008         	goto	i2u212_40
  1830   00115C                     i2u212_41:
  1831   00115C  EFC4  F008         	goto	i2l1172
  1832   001160                     i2u212_40:
  1833   001160  BA81               	btfsc	129,5,c	;volatile
  1834   001162  EFB5  F008         	goto	i2u213_41
  1835   001166  EFB7  F008         	goto	i2u213_40
  1836   00116A                     i2u213_41:
  1837   00116A  EFC4  F008         	goto	i2l1172
  1838   00116E                     i2u213_40:
  1839   00116E  505F               	movf	_RB5_Flag^0,w,c	;volatile
  1840   001170  A4D8               	btfss	status,2,c
  1841   001172  EFBD  F008         	goto	i2u214_41
  1842   001176  EFBF  F008         	goto	i2u214_40
  1843   00117A                     i2u214_41:
  1844   00117A  EFC4  F008         	goto	i2l1172
  1845   00117E                     i2u214_40:
  1846   00117E                     
  1847                           ;MCAL_Layer/Interrupt/mcal_interrupt_manager.c: 90:     {;MCAL_Layer/Interrupt/mcal_inte
      +                          rrupt_manager.c: 91:         RB5_Flag = 1;
  1848   00117E  0E01               	movlw	1
  1849   001180  6E5F               	movwf	_RB5_Flag^0,c	;volatile
  1850   001182                     
  1851                           ;MCAL_Layer/Interrupt/mcal_interrupt_manager.c: 92:         RB5_ISR(1);
  1852   001182  0E01               	movlw	1
  1853   001184  ECC4  F00C         	call	_RB5_ISR
  1854   001188                     i2l1172:
  1855                           
  1856                           ;MCAL_Layer/Interrupt/mcal_interrupt_manager.c: 95:     if((1 == INTCONbits.RBIE) && (1 
      +                          == INTCONbits.RBIF) &&
  1857   001188  A6F2               	btfss	242,3,c	;volatile
  1858   00118A  EFC9  F008         	goto	i2u215_41
  1859   00118E  EFCB  F008         	goto	i2u215_40
  1860   001192                     i2u215_41:
  1861   001192  EFE6  F008         	goto	i2l1174
  1862   001196                     i2u215_40:
  1863   001196  A0F2               	btfss	242,0,c	;volatile
  1864   001198  EFD0  F008         	goto	i2u216_41
  1865   00119C  EFD2  F008         	goto	i2u216_40
  1866   0011A0                     i2u216_41:
  1867   0011A0  EFE6  F008         	goto	i2l1174
  1868   0011A4                     i2u216_40:
  1869   0011A4  AC81               	btfss	129,6,c	;volatile
  1870   0011A6  EFD7  F008         	goto	i2u217_41
  1871   0011AA  EFD9  F008         	goto	i2u217_40
  1872   0011AE                     i2u217_41:
  1873   0011AE  EFE6  F008         	goto	i2l1174
  1874   0011B2                     i2u217_40:
  1875   0011B2  045E               	decf	_RB6_Flag^0,w,c	;volatile
  1876   0011B4  A4D8               	btfss	status,2,c
  1877   0011B6  EFDF  F008         	goto	i2u218_41
  1878   0011BA  EFE1  F008         	goto	i2u218_40
  1879   0011BE                     i2u218_41:
  1880   0011BE  EFE6  F008         	goto	i2l1174
  1881   0011C2                     i2u218_40:
  1882   0011C2                     
  1883                           ;MCAL_Layer/Interrupt/mcal_interrupt_manager.c: 97:     {;MCAL_Layer/Interrupt/mcal_inte
      +                          rrupt_manager.c: 98:         RB6_Flag = 0;
  1884   0011C2  0E00               	movlw	0
  1885   0011C4  6E5E               	movwf	_RB6_Flag^0,c	;volatile
  1886   0011C6                     
  1887                           ;MCAL_Layer/Interrupt/mcal_interrupt_manager.c: 99:         RB6_ISR(0);
  1888   0011C6  0E00               	movlw	0
  1889   0011C8  ECB7  F00C         	call	_RB6_ISR
  1890   0011CC                     i2l1174:
  1891                           
  1892                           ;MCAL_Layer/Interrupt/mcal_interrupt_manager.c: 102:     if((1 == INTCONbits.RBIE) && (1
      +                           == INTCONbits.RBIF) &&
  1893   0011CC  A6F2               	btfss	242,3,c	;volatile
  1894   0011CE  EFEB  F008         	goto	i2u219_41
  1895   0011D2  EFED  F008         	goto	i2u219_40
  1896   0011D6                     i2u219_41:
  1897   0011D6  EF08  F009         	goto	i2l1176
  1898   0011DA                     i2u219_40:
  1899   0011DA  A0F2               	btfss	242,0,c	;volatile
  1900   0011DC  EFF2  F008         	goto	i2u220_41
  1901   0011E0  EFF4  F008         	goto	i2u220_40
  1902   0011E4                     i2u220_41:
  1903   0011E4  EF08  F009         	goto	i2l1176
  1904   0011E8                     i2u220_40:
  1905   0011E8  BC81               	btfsc	129,6,c	;volatile
  1906   0011EA  EFF9  F008         	goto	i2u221_41
  1907   0011EE  EFFB  F008         	goto	i2u221_40
  1908   0011F2                     i2u221_41:
  1909   0011F2  EF08  F009         	goto	i2l1176
  1910   0011F6                     i2u221_40:
  1911   0011F6  505E               	movf	_RB6_Flag^0,w,c	;volatile
  1912   0011F8  A4D8               	btfss	status,2,c
  1913   0011FA  EF01  F009         	goto	i2u222_41
  1914   0011FE  EF03  F009         	goto	i2u222_40
  1915   001202                     i2u222_41:
  1916   001202  EF08  F009         	goto	i2l1176
  1917   001206                     i2u222_40:
  1918   001206                     
  1919                           ;MCAL_Layer/Interrupt/mcal_interrupt_manager.c: 104:     {;MCAL_Layer/Interrupt/mcal_int
      +                          errupt_manager.c: 105:         RB6_Flag = 1;
  1920   001206  0E01               	movlw	1
  1921   001208  6E5E               	movwf	_RB6_Flag^0,c	;volatile
  1922   00120A                     
  1923                           ;MCAL_Layer/Interrupt/mcal_interrupt_manager.c: 106:         RB6_ISR(1);
  1924   00120A  0E01               	movlw	1
  1925   00120C  ECB7  F00C         	call	_RB6_ISR
  1926   001210                     i2l1176:
  1927                           
  1928                           ;MCAL_Layer/Interrupt/mcal_interrupt_manager.c: 109:     if((1 == INTCONbits.RBIE) && (1
      +                           == INTCONbits.RBIF) &&
  1929   001210  A6F2               	btfss	242,3,c	;volatile
  1930   001212  EF0D  F009         	goto	i2u223_41
  1931   001216  EF0F  F009         	goto	i2u223_40
  1932   00121A                     i2u223_41:
  1933   00121A  EF2A  F009         	goto	i2l1178
  1934   00121E                     i2u223_40:
  1935   00121E  A0F2               	btfss	242,0,c	;volatile
  1936   001220  EF14  F009         	goto	i2u224_41
  1937   001224  EF16  F009         	goto	i2u224_40
  1938   001228                     i2u224_41:
  1939   001228  EF2A  F009         	goto	i2l1178
  1940   00122C                     i2u224_40:
  1941   00122C  AE81               	btfss	129,7,c	;volatile
  1942   00122E  EF1B  F009         	goto	i2u225_41
  1943   001232  EF1D  F009         	goto	i2u225_40
  1944   001236                     i2u225_41:
  1945   001236  EF2A  F009         	goto	i2l1178
  1946   00123A                     i2u225_40:
  1947   00123A  045D               	decf	_RB7_Flag^0,w,c	;volatile
  1948   00123C  A4D8               	btfss	status,2,c
  1949   00123E  EF23  F009         	goto	i2u226_41
  1950   001242  EF25  F009         	goto	i2u226_40
  1951   001246                     i2u226_41:
  1952   001246  EF2A  F009         	goto	i2l1178
  1953   00124A                     i2u226_40:
  1954   00124A                     
  1955                           ;MCAL_Layer/Interrupt/mcal_interrupt_manager.c: 111:     {;MCAL_Layer/Interrupt/mcal_int
      +                          errupt_manager.c: 112:         RB7_Flag = 0;
  1956   00124A  0E00               	movlw	0
  1957   00124C  6E5D               	movwf	_RB7_Flag^0,c	;volatile
  1958   00124E                     
  1959                           ;MCAL_Layer/Interrupt/mcal_interrupt_manager.c: 113:         RB7_ISR(0);
  1960   00124E  0E00               	movlw	0
  1961   001250  ECAA  F00C         	call	_RB7_ISR
  1962   001254                     i2l1178:
  1963                           
  1964                           ;MCAL_Layer/Interrupt/mcal_interrupt_manager.c: 116:     if((1 == INTCONbits.RBIE) && (1
      +                           == INTCONbits.RBIF) &&
  1965   001254  A6F2               	btfss	242,3,c	;volatile
  1966   001256  EF2F  F009         	goto	i2u227_41
  1967   00125A  EF31  F009         	goto	i2u227_40
  1968   00125E                     i2u227_41:
  1969   00125E  EF4C  F009         	goto	i2l1180
  1970   001262                     i2u227_40:
  1971   001262  A0F2               	btfss	242,0,c	;volatile
  1972   001264  EF36  F009         	goto	i2u228_41
  1973   001268  EF38  F009         	goto	i2u228_40
  1974   00126C                     i2u228_41:
  1975   00126C  EF4C  F009         	goto	i2l1180
  1976   001270                     i2u228_40:
  1977   001270  BE81               	btfsc	129,7,c	;volatile
  1978   001272  EF3D  F009         	goto	i2u229_41
  1979   001276  EF3F  F009         	goto	i2u229_40
  1980   00127A                     i2u229_41:
  1981   00127A  EF4C  F009         	goto	i2l1180
  1982   00127E                     i2u229_40:
  1983   00127E  505D               	movf	_RB7_Flag^0,w,c	;volatile
  1984   001280  A4D8               	btfss	status,2,c
  1985   001282  EF45  F009         	goto	i2u230_41
  1986   001286  EF47  F009         	goto	i2u230_40
  1987   00128A                     i2u230_41:
  1988   00128A  EF4C  F009         	goto	i2l1180
  1989   00128E                     i2u230_40:
  1990   00128E                     
  1991                           ;MCAL_Layer/Interrupt/mcal_interrupt_manager.c: 118:     {;MCAL_Layer/Interrupt/mcal_int
      +                          errupt_manager.c: 119:         RB7_Flag = 1;
  1992   00128E  0E01               	movlw	1
  1993   001290  6E5D               	movwf	_RB7_Flag^0,c	;volatile
  1994   001292                     
  1995                           ;MCAL_Layer/Interrupt/mcal_interrupt_manager.c: 120:         RB7_ISR(1);
  1996   001292  0E01               	movlw	1
  1997   001294  ECAA  F00C         	call	_RB7_ISR
  1998   001298                     i2l1180:
  1999                           
  2000                           ;MCAL_Layer/Interrupt/mcal_interrupt_manager.c: 126:     if((1 == PIE1bits.ADIE) && (1 =
      +                          = PIR1bits.ADIF))
  2001   001298  AC9D               	btfss	157,6,c	;volatile
  2002   00129A  EF51  F009         	goto	i2u231_41
  2003   00129E  EF53  F009         	goto	i2u231_40
  2004   0012A2                     i2u231_41:
  2005   0012A2  EF5C  F009         	goto	i2l1182
  2006   0012A6                     i2u231_40:
  2007   0012A6  AC9E               	btfss	158,6,c	;volatile
  2008   0012A8  EF58  F009         	goto	i2u232_41
  2009   0012AC  EF5A  F009         	goto	i2u232_40
  2010   0012B0                     i2u232_41:
  2011   0012B0  EF5C  F009         	goto	i2l1182
  2012   0012B4                     i2u232_40:
  2013   0012B4                     
  2014                           ;MCAL_Layer/Interrupt/mcal_interrupt_manager.c: 127:     {;MCAL_Layer/Interrupt/mcal_int
      +                          errupt_manager.c: 128:         ADC_ISR();
  2015   0012B4  EC0E  F00D         	call	_ADC_ISR	;wreg free
  2016   0012B8                     i2l1182:
  2017                           
  2018                           ;MCAL_Layer/Interrupt/mcal_interrupt_manager.c: 134:     if((1 == INTCONbits.TMR0IE) && 
      +                          (1 == INTCONbits.TMR0IF))
  2019   0012B8  AAF2               	btfss	242,5,c	;volatile
  2020   0012BA  EF61  F009         	goto	i2u233_41
  2021   0012BE  EF63  F009         	goto	i2u233_40
  2022   0012C2                     i2u233_41:
  2023   0012C2  EF6C  F009         	goto	i2l1184
  2024   0012C6                     i2u233_40:
  2025   0012C6  A4F2               	btfss	242,2,c	;volatile
  2026   0012C8  EF68  F009         	goto	i2u234_41
  2027   0012CC  EF6A  F009         	goto	i2u234_40
  2028   0012D0                     i2u234_41:
  2029   0012D0  EF6C  F009         	goto	i2l1184
  2030   0012D4                     i2u234_40:
  2031   0012D4                     
  2032                           ;MCAL_Layer/Interrupt/mcal_interrupt_manager.c: 135:     {;MCAL_Layer/Interrupt/mcal_int
      +                          errupt_manager.c: 136:         TMR0_ISR();
  2033   0012D4  ECF4  F00C         	call	_TMR0_ISR	;wreg free
  2034   0012D8                     i2l1184:
  2035                           
  2036                           ;MCAL_Layer/Interrupt/mcal_interrupt_manager.c: 139:     if((1 == PIE1bits.TMR1IE) && (1
      +                           == PIR1bits.TMR1IF))
  2037   0012D8  A09D               	btfss	157,0,c	;volatile
  2038   0012DA  EF71  F009         	goto	i2u235_41
  2039   0012DE  EF73  F009         	goto	i2u235_40
  2040   0012E2                     i2u235_41:
  2041   0012E2  EF7C  F009         	goto	i2l1186
  2042   0012E6                     i2u235_40:
  2043   0012E6  A09E               	btfss	158,0,c	;volatile
  2044   0012E8  EF78  F009         	goto	i2u236_41
  2045   0012EC  EF7A  F009         	goto	i2u236_40
  2046   0012F0                     i2u236_41:
  2047   0012F0  EF7C  F009         	goto	i2l1186
  2048   0012F4                     i2u236_40:
  2049   0012F4                     
  2050                           ;MCAL_Layer/Interrupt/mcal_interrupt_manager.c: 140:     {;MCAL_Layer/Interrupt/mcal_int
      +                          errupt_manager.c: 141:         TMR1_ISR();
  2051   0012F4  ECEE  F00C         	call	_TMR1_ISR	;wreg free
  2052   0012F8                     i2l1186:
  2053                           
  2054                           ;MCAL_Layer/Interrupt/mcal_interrupt_manager.c: 144:     if((1 == PIE1bits.TMR2IE) && (1
      +                           == PIR1bits.TMR2IF))
  2055   0012F8  A29D               	btfss	157,1,c	;volatile
  2056   0012FA  EF81  F009         	goto	i2u237_41
  2057   0012FE  EF83  F009         	goto	i2u237_40
  2058   001302                     i2u237_41:
  2059   001302  EF8C  F009         	goto	i2l1188
  2060   001306                     i2u237_40:
  2061   001306  A29E               	btfss	158,1,c	;volatile
  2062   001308  EF88  F009         	goto	i2u238_41
  2063   00130C  EF8A  F009         	goto	i2u238_40
  2064   001310                     i2u238_41:
  2065   001310  EF8C  F009         	goto	i2l1188
  2066   001314                     i2u238_40:
  2067   001314                     
  2068                           ;MCAL_Layer/Interrupt/mcal_interrupt_manager.c: 145:     {;MCAL_Layer/Interrupt/mcal_int
      +                          errupt_manager.c: 146:         TMR2_ISR();
  2069   001314  ECFA  F00C         	call	_TMR2_ISR	;wreg free
  2070   001318                     i2l1188:
  2071                           
  2072                           ;MCAL_Layer/Interrupt/mcal_interrupt_manager.c: 149:     if((1 == PIE2bits.TMR3IE) && (1
      +                           == PIR2bits.TMR3IF))
  2073   001318  A2A0               	btfss	160,1,c	;volatile
  2074   00131A  EF91  F009         	goto	i2u239_41
  2075   00131E  EF93  F009         	goto	i2u239_40
  2076   001322                     i2u239_41:
  2077   001322  EF9C  F009         	goto	i2l1190
  2078   001326                     i2u239_40:
  2079   001326  A2A1               	btfss	161,1,c	;volatile
  2080   001328  EF98  F009         	goto	i2u240_41
  2081   00132C  EF9A  F009         	goto	i2u240_40
  2082   001330                     i2u240_41:
  2083   001330  EF9C  F009         	goto	i2l1190
  2084   001334                     i2u240_40:
  2085   001334                     
  2086                           ;MCAL_Layer/Interrupt/mcal_interrupt_manager.c: 150:     {;MCAL_Layer/Interrupt/mcal_int
      +                          errupt_manager.c: 151:         TMR3_ISR();
  2087   001334  ECE8  F00C         	call	_TMR3_ISR	;wreg free
  2088   001338                     i2l1190:
  2089                           
  2090                           ;MCAL_Layer/Interrupt/mcal_interrupt_manager.c: 157:     if((1 == PIE1bits.TXIE) && (1 =
      +                          = PIR1bits.TXIF))
  2091   001338  A89D               	btfss	157,4,c	;volatile
  2092   00133A  EFA1  F009         	goto	i2u241_41
  2093   00133E  EFA3  F009         	goto	i2u241_40
  2094   001342                     i2u241_41:
  2095   001342  EFAC  F009         	goto	i2l1192
  2096   001346                     i2u241_40:
  2097   001346  A89E               	btfss	158,4,c	;volatile
  2098   001348  EFA8  F009         	goto	i2u242_41
  2099   00134C  EFAA  F009         	goto	i2u242_40
  2100   001350                     i2u242_41:
  2101   001350  EFAC  F009         	goto	i2l1192
  2102   001354                     i2u242_40:
  2103   001354                     
  2104                           ;MCAL_Layer/Interrupt/mcal_interrupt_manager.c: 158:     {;MCAL_Layer/Interrupt/mcal_int
      +                          errupt_manager.c: 159:         USART_TX_ISR();
  2105   001354  ECFE  F00C         	call	_USART_TX_ISR	;wreg free
  2106   001358                     i2l1192:
  2107                           
  2108                           ;MCAL_Layer/Interrupt/mcal_interrupt_manager.c: 162:     if((1 == PIE1bits.RCIE) && (1 =
      +                          = PIR1bits.RCIF))
  2109   001358  AA9D               	btfss	157,5,c	;volatile
  2110   00135A  EFB1  F009         	goto	i2u243_41
  2111   00135E  EFB3  F009         	goto	i2u243_40
  2112   001362                     i2u243_41:
  2113   001362  EFBC  F009         	goto	i2l1194
  2114   001366                     i2u243_40:
  2115   001366  AA9E               	btfss	158,5,c	;volatile
  2116   001368  EFB8  F009         	goto	i2u244_41
  2117   00136C  EFBA  F009         	goto	i2u244_40
  2118   001370                     i2u244_41:
  2119   001370  EFBC  F009         	goto	i2l1194
  2120   001374                     i2u244_40:
  2121   001374                     
  2122                           ;MCAL_Layer/Interrupt/mcal_interrupt_manager.c: 163:     {;MCAL_Layer/Interrupt/mcal_int
      +                          errupt_manager.c: 164:         USART_RX_ISR();
  2123   001374  EC10  F00D         	call	_USART_RX_ISR	;wreg free
  2124   001378                     i2l1194:
  2125                           
  2126                           ;MCAL_Layer/Interrupt/mcal_interrupt_manager.c: 170:     if((1 == PIE1bits.SSPIE) && (1 
      +                          == PIR1bits.SSPIF))
  2127   001378  A69D               	btfss	157,3,c	;volatile
  2128   00137A  EFC1  F009         	goto	i2u245_41
  2129   00137E  EFC3  F009         	goto	i2u245_40
  2130   001382                     i2u245_41:
  2131   001382  EFCC  F009         	goto	i2l1196
  2132   001386                     i2u245_40:
  2133   001386  A69E               	btfss	158,3,c	;volatile
  2134   001388  EFC8  F009         	goto	i2u246_41
  2135   00138C  EFCA  F009         	goto	i2u246_40
  2136   001390                     i2u246_41:
  2137   001390  EFCC  F009         	goto	i2l1196
  2138   001394                     i2u246_40:
  2139   001394                     
  2140                           ;MCAL_Layer/Interrupt/mcal_interrupt_manager.c: 171:     {;MCAL_Layer/Interrupt/mcal_int
      +                          errupt_manager.c: 172:         MSSP_I2C_ISR();
  2141   001394  EC00  F00D         	call	_MSSP_I2C_ISR	;wreg free
  2142   001398                     i2l1196:
  2143                           
  2144                           ;MCAL_Layer/Interrupt/mcal_interrupt_manager.c: 175:     if((1 == PIE2bits.BCLIE) && (1 
      +                          == PIR2bits.BCLIF))
  2145   001398  A6A0               	btfss	160,3,c	;volatile
  2146   00139A  EFD1  F009         	goto	i2u247_41
  2147   00139E  EFD3  F009         	goto	i2u247_40
  2148   0013A2                     i2u247_41:
  2149   0013A2  EFDC  F009         	goto	i2l1198
  2150   0013A6                     i2u247_40:
  2151   0013A6  A6A1               	btfss	161,3,c	;volatile
  2152   0013A8  EFD8  F009         	goto	i2u248_41
  2153   0013AC  EFDA  F009         	goto	i2u248_40
  2154   0013B0                     i2u248_41:
  2155   0013B0  EFDC  F009         	goto	i2l1198
  2156   0013B4                     i2u248_40:
  2157   0013B4                     
  2158                           ;MCAL_Layer/Interrupt/mcal_interrupt_manager.c: 176:     {;MCAL_Layer/Interrupt/mcal_int
      +                          errupt_manager.c: 177:         MSSP_I2C_BC_ISR();
  2159   0013B4  EC02  F00D         	call	_MSSP_I2C_BC_ISR	;wreg free
  2160   0013B8                     i2l1198:
  2161                           
  2162                           ;MCAL_Layer/Interrupt/mcal_interrupt_manager.c: 183:     if((1 == PIE1bits.CCP1IE) && (1
      +                           == PIR1bits.CCP1IF))
  2163   0013B8  A49D               	btfss	157,2,c	;volatile
  2164   0013BA  EFE1  F009         	goto	i2u249_41
  2165   0013BE  EFE3  F009         	goto	i2u249_40
  2166   0013C2                     i2u249_41:
  2167   0013C2  EFEC  F009         	goto	i2l1200
  2168   0013C6                     i2u249_40:
  2169   0013C6  A49E               	btfss	158,2,c	;volatile
  2170   0013C8  EFE8  F009         	goto	i2u250_41
  2171   0013CC  EFEA  F009         	goto	i2u250_40
  2172   0013D0                     i2u250_41:
  2173   0013D0  EFEC  F009         	goto	i2l1200
  2174   0013D4                     i2u250_40:
  2175   0013D4                     
  2176                           ;MCAL_Layer/Interrupt/mcal_interrupt_manager.c: 184:     {;MCAL_Layer/Interrupt/mcal_int
      +                          errupt_manager.c: 185:         CCP1_ISR();
  2177   0013D4  EC0C  F00D         	call	_CCP1_ISR	;wreg free
  2178   0013D8                     i2l1200:
  2179                           
  2180                           ;MCAL_Layer/Interrupt/mcal_interrupt_manager.c: 188:     if((1 == PIE2bits.CCP2IE) && (1
      +                           == PIR2bits.CCP2IF))
  2181   0013D8  A0A0               	btfss	160,0,c	;volatile
  2182   0013DA  EFF1  F009         	goto	i2u251_41
  2183   0013DE  EFF3  F009         	goto	i2u251_40
  2184   0013E2                     i2u251_41:
  2185   0013E2  EFFC  F009         	goto	i2l1203
  2186   0013E6                     i2u251_40:
  2187   0013E6  A0A1               	btfss	161,0,c	;volatile
  2188   0013E8  EFF8  F009         	goto	i2u252_41
  2189   0013EC  EFFA  F009         	goto	i2u252_40
  2190   0013F0                     i2u252_41:
  2191   0013F0  EFFC  F009         	goto	i2l1203
  2192   0013F4                     i2u252_40:
  2193   0013F4                     
  2194                           ;MCAL_Layer/Interrupt/mcal_interrupt_manager.c: 189:     {;MCAL_Layer/Interrupt/mcal_int
      +                          errupt_manager.c: 190:         CCP2_ISR();
  2195   0013F4  EC0A  F00D         	call	_CCP2_ISR	;wreg free
  2196   0013F8                     i2l1203:
  2197   0013F8  927D               	bcf	int$flags,1,c	;clear compiler interrupt flag (level 2)
  2198   0013FA  0011               	retfie		f
  2199   0013FC                     __end_of_InterruptManager:
  2200                           	callstack 0
  2201                           
  2202 ;; *************** function _USART_TX_ISR *****************
  2203 ;; Defined at:
  2204 ;;		line 409 in file "MCAL_Layer/USART/hal_usart.c"
  2205 ;; Parameters:    Size  Location     Type
  2206 ;;		None
  2207 ;; Auto vars:     Size  Location     Type
  2208 ;;		None
  2209 ;; Return value:  Size  Location     Type
  2210 ;;                  1    wreg      void 
  2211 ;; Registers used:
  2212 ;;		None
  2213 ;; Tracked objects:
  2214 ;;		On entry : 0/0
  2215 ;;		On exit  : 0/0
  2216 ;;		Unchanged: 0/0
  2217 ;; Data sizes:     COMRAM   BANK0   BANK1   BANK2   BANK3   BANK4   BANK5   BANK6   BANK7   BANK8   BANK9  BANK10  BANK1
      +1  BANK12  BANK13  BANK14  BANK15
  2218 ;;      Params:         0       0       0       0       0       0       0       0       0       0       0       0       
      +0       0       0       0       0
  2219 ;;      Locals:         0       0       0       0       0       0       0       0       0       0       0       0       
      +0       0       0       0       0
  2220 ;;      Temps:          0       0       0       0       0       0       0       0       0       0       0       0       
      +0       0       0       0       0
  2221 ;;      Totals:         0       0       0       0       0       0       0       0       0       0       0       0       
      +0       0       0       0       0
  2222 ;;Total ram usage:        0 bytes
  2223 ;; Hardware stack levels used: 1
  2224 ;; This function calls:
  2225 ;;		Nothing
  2226 ;; This function is called by:
  2227 ;;		_InterruptManager
  2228 ;; This function uses a non-reentrant model
  2229 ;;
  2230                           
  2231                           	psect	text9
  2232   0019FC                     __ptext9:
  2233                           	callstack 0
  2234   0019FC                     _USART_TX_ISR:
  2235                           	callstack 25
  2236   0019FC                     
  2237                           ;MCAL_Layer/USART/hal_usart.c: 412:     (PIE1bits.TXIE = 0);
  2238   0019FC  989D               	bcf	157,4,c	;volatile
  2239   0019FE  0012               	return		;funcret
  2240   001A00                     __end_of_USART_TX_ISR:
  2241                           	callstack 0
  2242                           
  2243 ;; *************** function _USART_RX_ISR *****************
  2244 ;; Defined at:
  2245 ;;		line 423 in file "MCAL_Layer/USART/hal_usart.c"
  2246 ;; Parameters:    Size  Location     Type
  2247 ;;		None
  2248 ;; Auto vars:     Size  Location     Type
  2249 ;;		None
  2250 ;; Return value:  Size  Location     Type
  2251 ;;                  1    wreg      void 
  2252 ;; Registers used:
  2253 ;;		wreg, status,2, status,0
  2254 ;; Tracked objects:
  2255 ;;		On entry : 0/0
  2256 ;;		On exit  : 0/0
  2257 ;;		Unchanged: 0/0
  2258 ;; Data sizes:     COMRAM   BANK0   BANK1   BANK2   BANK3   BANK4   BANK5   BANK6   BANK7   BANK8   BANK9  BANK10  BANK1
      +1  BANK12  BANK13  BANK14  BANK15
  2259 ;;      Params:         0       0       0       0       0       0       0       0       0       0       0       0       
      +0       0       0       0       0
  2260 ;;      Locals:         0       0       0       0       0       0       0       0       0       0       0       0       
      +0       0       0       0       0
  2261 ;;      Temps:          0       0       0       0       0       0       0       0       0       0       0       0       
      +0       0       0       0       0
  2262 ;;      Totals:         0       0       0       0       0       0       0       0       0       0       0       0       
      +0       0       0       0       0
  2263 ;;Total ram usage:        0 bytes
  2264 ;; Hardware stack levels used: 1
  2265 ;; This function calls:
  2266 ;;		Nothing
  2267 ;; This function is called by:
  2268 ;;		_InterruptManager
  2269 ;; This function uses a non-reentrant model
  2270 ;;
  2271                           
  2272                           	psect	text10
  2273   001A20                     __ptext10:
  2274                           	callstack 0
  2275   001A20                     _USART_RX_ISR:
  2276                           	callstack 25
  2277   001A20  0012               	return		;funcret
  2278   001A22                     __end_of_USART_RX_ISR:
  2279                           	callstack 0
  2280                           
  2281 ;; *************** function _TMR3_ISR *****************
  2282 ;; Defined at:
  2283 ;;		line 172 in file "MCAL_Layer/Timer3/hal_timer3.c"
  2284 ;; Parameters:    Size  Location     Type
  2285 ;;		None
  2286 ;; Auto vars:     Size  Location     Type
  2287 ;;		None
  2288 ;; Return value:  Size  Location     Type
  2289 ;;                  1    wreg      void 
  2290 ;; Registers used:
  2291 ;;		wreg, status,2
  2292 ;; Tracked objects:
  2293 ;;		On entry : 0/0
  2294 ;;		On exit  : 0/0
  2295 ;;		Unchanged: 0/0
  2296 ;; Data sizes:     COMRAM   BANK0   BANK1   BANK2   BANK3   BANK4   BANK5   BANK6   BANK7   BANK8   BANK9  BANK10  BANK1
      +1  BANK12  BANK13  BANK14  BANK15
  2297 ;;      Params:         0       0       0       0       0       0       0       0       0       0       0       0       
      +0       0       0       0       0
  2298 ;;      Locals:         0       0       0       0       0       0       0       0       0       0       0       0       
      +0       0       0       0       0
  2299 ;;      Temps:          0       0       0       0       0       0       0       0       0       0       0       0       
      +0       0       0       0       0
  2300 ;;      Totals:         0       0       0       0       0       0       0       0       0       0       0       0       
      +0       0       0       0       0
  2301 ;;Total ram usage:        0 bytes
  2302 ;; Hardware stack levels used: 1
  2303 ;; This function calls:
  2304 ;;		Nothing
  2305 ;; This function is called by:
  2306 ;;		_InterruptManager
  2307 ;; This function uses a non-reentrant model
  2308 ;;
  2309                           
  2310                           	psect	text11
  2311   0019D0                     __ptext11:
  2312                           	callstack 0
  2313   0019D0                     _TMR3_ISR:
  2314                           	callstack 25
  2315   0019D0                     
  2316                           ;MCAL_Layer/Timer3/hal_timer3.c: 174:     (PIR2bits.TMR3IF = 0);
  2317   0019D0  92A1               	bcf	161,1,c	;volatile
  2318   0019D2                     
  2319                           ;MCAL_Layer/Timer3/hal_timer3.c: 175:     TMR3H = (timer3_preload) >> 8;
  2320   0019D2  5012               	movf	(_timer3_preload+1)^0,w,c
  2321   0019D4  6EB3               	movwf	179,c	;volatile
  2322   0019D6                     
  2323                           ;MCAL_Layer/Timer3/hal_timer3.c: 176:     TMR3L = (uint8)(timer3_preload);
  2324   0019D6  C011  FFB2         	movff	_timer3_preload,4018	;volatile
  2325   0019DA  0012               	return		;funcret
  2326   0019DC                     __end_of_TMR3_ISR:
  2327                           	callstack 0
  2328                           
  2329 ;; *************** function _TMR2_ISR *****************
  2330 ;; Defined at:
  2331 ;;		line 162 in file "MCAL_Layer/Timer2/hal_timer2.c"
  2332 ;; Parameters:    Size  Location     Type
  2333 ;;		None
  2334 ;; Auto vars:     Size  Location     Type
  2335 ;;		None
  2336 ;; Return value:  Size  Location     Type
  2337 ;;                  1    wreg      void 
  2338 ;; Registers used:
  2339 ;;		None
  2340 ;; Tracked objects:
  2341 ;;		On entry : 0/0
  2342 ;;		On exit  : 0/0
  2343 ;;		Unchanged: 0/0
  2344 ;; Data sizes:     COMRAM   BANK0   BANK1   BANK2   BANK3   BANK4   BANK5   BANK6   BANK7   BANK8   BANK9  BANK10  BANK1
      +1  BANK12  BANK13  BANK14  BANK15
  2345 ;;      Params:         0       0       0       0       0       0       0       0       0       0       0       0       
      +0       0       0       0       0
  2346 ;;      Locals:         0       0       0       0       0       0       0       0       0       0       0       0       
      +0       0       0       0       0
  2347 ;;      Temps:          0       0       0       0       0       0       0       0       0       0       0       0       
      +0       0       0       0       0
  2348 ;;      Totals:         0       0       0       0       0       0       0       0       0       0       0       0       
      +0       0       0       0       0
  2349 ;;Total ram usage:        0 bytes
  2350 ;; Hardware stack levels used: 1
  2351 ;; This function calls:
  2352 ;;		Nothing
  2353 ;; This function is called by:
  2354 ;;		_InterruptManager
  2355 ;; This function uses a non-reentrant model
  2356 ;;
  2357                           
  2358                           	psect	text12
  2359   0019F4                     __ptext12:
  2360                           	callstack 0
  2361   0019F4                     _TMR2_ISR:
  2362                           	callstack 25
  2363   0019F4                     
  2364                           ;MCAL_Layer/Timer2/hal_timer2.c: 164:     (PIR1bits.TMR2IF = 0);
  2365   0019F4  929E               	bcf	158,1,c	;volatile
  2366                           
  2367                           ;MCAL_Layer/Timer2/hal_timer2.c: 165:     TMR2 = timer2_preload;
  2368   0019F6  C041  FFCC         	movff	_timer2_preload,4044	;volatile
  2369   0019FA  0012               	return		;funcret
  2370   0019FC                     __end_of_TMR2_ISR:
  2371                           	callstack 0
  2372                           
  2373 ;; *************** function _TMR1_ISR *****************
  2374 ;; Defined at:
  2375 ;;		line 172 in file "MCAL_Layer/Timer1/hal_timer1.c"
  2376 ;; Parameters:    Size  Location     Type
  2377 ;;		None
  2378 ;; Auto vars:     Size  Location     Type
  2379 ;;		None
  2380 ;; Return value:  Size  Location     Type
  2381 ;;                  1    wreg      void 
  2382 ;; Registers used:
  2383 ;;		wreg, status,2
  2384 ;; Tracked objects:
  2385 ;;		On entry : 0/0
  2386 ;;		On exit  : 0/0
  2387 ;;		Unchanged: 0/0
  2388 ;; Data sizes:     COMRAM   BANK0   BANK1   BANK2   BANK3   BANK4   BANK5   BANK6   BANK7   BANK8   BANK9  BANK10  BANK1
      +1  BANK12  BANK13  BANK14  BANK15
  2389 ;;      Params:         0       0       0       0       0       0       0       0       0       0       0       0       
      +0       0       0       0       0
  2390 ;;      Locals:         0       0       0       0       0       0       0       0       0       0       0       0       
      +0       0       0       0       0
  2391 ;;      Temps:          0       0       0       0       0       0       0       0       0       0       0       0       
      +0       0       0       0       0
  2392 ;;      Totals:         0       0       0       0       0       0       0       0       0       0       0       0       
      +0       0       0       0       0
  2393 ;;Total ram usage:        0 bytes
  2394 ;; Hardware stack levels used: 1
  2395 ;; This function calls:
  2396 ;;		Nothing
  2397 ;; This function is called by:
  2398 ;;		_InterruptManager
  2399 ;; This function uses a non-reentrant model
  2400 ;;
  2401                           
  2402                           	psect	text13
  2403   0019DC                     __ptext13:
  2404                           	callstack 0
  2405   0019DC                     _TMR1_ISR:
  2406                           	callstack 25
  2407   0019DC                     
  2408                           ;MCAL_Layer/Timer1/hal_timer1.c: 174:     (PIR1bits.TMR1IF = 0);
  2409   0019DC  909E               	bcf	158,0,c	;volatile
  2410   0019DE                     
  2411                           ;MCAL_Layer/Timer1/hal_timer1.c: 175:     TMR1H = (timer1_preload) >> 8;
  2412   0019DE  5018               	movf	(_timer1_preload+1)^0,w,c
  2413   0019E0  6ECF               	movwf	207,c	;volatile
  2414   0019E2                     
  2415                           ;MCAL_Layer/Timer1/hal_timer1.c: 176:     TMR1L = (uint8)(timer1_preload);
  2416   0019E2  C017  FFCE         	movff	_timer1_preload,4046	;volatile
  2417   0019E6  0012               	return		;funcret
  2418   0019E8                     __end_of_TMR1_ISR:
  2419                           	callstack 0
  2420                           
  2421 ;; *************** function _TMR0_ISR *****************
  2422 ;; Defined at:
  2423 ;;		line 186 in file "MCAL_Layer/Timer0/hal_timer0.c"
  2424 ;; Parameters:    Size  Location     Type
  2425 ;;		None
  2426 ;; Auto vars:     Size  Location     Type
  2427 ;;		None
  2428 ;; Return value:  Size  Location     Type
  2429 ;;                  1    wreg      void 
  2430 ;; Registers used:
  2431 ;;		wreg, status,2
  2432 ;; Tracked objects:
  2433 ;;		On entry : 0/0
  2434 ;;		On exit  : 0/0
  2435 ;;		Unchanged: 0/0
  2436 ;; Data sizes:     COMRAM   BANK0   BANK1   BANK2   BANK3   BANK4   BANK5   BANK6   BANK7   BANK8   BANK9  BANK10  BANK1
      +1  BANK12  BANK13  BANK14  BANK15
  2437 ;;      Params:         0       0       0       0       0       0       0       0       0       0       0       0       
      +0       0       0       0       0
  2438 ;;      Locals:         0       0       0       0       0       0       0       0       0       0       0       0       
      +0       0       0       0       0
  2439 ;;      Temps:          0       0       0       0       0       0       0       0       0       0       0       0       
      +0       0       0       0       0
  2440 ;;      Totals:         0       0       0       0       0       0       0       0       0       0       0       0       
      +0       0       0       0       0
  2441 ;;Total ram usage:        0 bytes
  2442 ;; Hardware stack levels used: 1
  2443 ;; This function calls:
  2444 ;;		Nothing
  2445 ;; This function is called by:
  2446 ;;		_InterruptManager
  2447 ;; This function uses a non-reentrant model
  2448 ;;
  2449                           
  2450                           	psect	text14
  2451   0019E8                     __ptext14:
  2452                           	callstack 0
  2453   0019E8                     _TMR0_ISR:
  2454                           	callstack 25
  2455   0019E8                     
  2456                           ;MCAL_Layer/Timer0/hal_timer0.c: 188:     (INTCONbits.TMR0IF = 0);
  2457   0019E8  94F2               	bcf	242,2,c	;volatile
  2458   0019EA                     
  2459                           ;MCAL_Layer/Timer0/hal_timer0.c: 189:     TMR0H = (timer0_preload) >> 8;
  2460   0019EA  501C               	movf	(_timer0_preload+1)^0,w,c
  2461   0019EC  6ED7               	movwf	215,c	;volatile
  2462   0019EE                     
  2463                           ;MCAL_Layer/Timer0/hal_timer0.c: 190:     TMR0L = (uint8)(timer0_preload);
  2464   0019EE  C01B  FFD6         	movff	_timer0_preload,4054	;volatile
  2465   0019F2  0012               	return		;funcret
  2466   0019F4                     __end_of_TMR0_ISR:
  2467                           	callstack 0
  2468                           
  2469 ;; *************** function _RB7_ISR *****************
  2470 ;; Defined at:
  2471 ;;		line 284 in file "MCAL_Layer/Interrupt/mcal_external_interrupt.c"
  2472 ;; Parameters:    Size  Location     Type
  2473 ;;  RB7_Source      1    wreg     unsigned char 
  2474 ;; Auto vars:     Size  Location     Type
  2475 ;;  RB7_Source      1    0[COMRAM] unsigned char 
  2476 ;; Return value:  Size  Location     Type
  2477 ;;                  1    wreg      void 
  2478 ;; Registers used:
  2479 ;;		wreg, status,2, status,0
  2480 ;; Tracked objects:
  2481 ;;		On entry : 0/0
  2482 ;;		On exit  : 0/0
  2483 ;;		Unchanged: 0/0
  2484 ;; Data sizes:     COMRAM   BANK0   BANK1   BANK2   BANK3   BANK4   BANK5   BANK6   BANK7   BANK8   BANK9  BANK10  BANK1
      +1  BANK12  BANK13  BANK14  BANK15
  2485 ;;      Params:         0       0       0       0       0       0       0       0       0       0       0       0       
      +0       0       0       0       0
  2486 ;;      Locals:         1       0       0       0       0       0       0       0       0       0       0       0       
      +0       0       0       0       0
  2487 ;;      Temps:          0       0       0       0       0       0       0       0       0       0       0       0       
      +0       0       0       0       0
  2488 ;;      Totals:         1       0       0       0       0       0       0       0       0       0       0       0       
      +0       0       0       0       0
  2489 ;;Total ram usage:        1 bytes
  2490 ;; Hardware stack levels used: 1
  2491 ;; This function calls:
  2492 ;;		Nothing
  2493 ;; This function is called by:
  2494 ;;		_InterruptManager
  2495 ;; This function uses a non-reentrant model
  2496 ;;
  2497                           
  2498                           	psect	text15
  2499   001954                     __ptext15:
  2500                           	callstack 0
  2501   001954                     _RB7_ISR:
  2502                           	callstack 25
  2503                           
  2504                           ;incstack = 0
  2505                           ;RB7_ISR@RB7_Source stored from wreg
  2506   001954  6E69               	movwf	RB7_ISR@RB7_Source^0,c
  2507   001956                     
  2508                           ;MCAL_Layer/Interrupt/mcal_external_interrupt.c: 284: void RB7_ISR(uint8 RB7_Source);MCA
      +                          L_Layer/Interrupt/mcal_external_interrupt.c: 285: {;MCAL_Layer/Interrupt/mcal_external_i
      +                          nterrupt.c: 286:     (INTCONbits.RBIF = 0);
  2509   001956  90F2               	bcf	242,0,c	;volatile
  2510   001958                     
  2511                           ;MCAL_Layer/Interrupt/mcal_external_interrupt.c: 287:     if(0 == RB7_Source)
  2512   001958  5069               	movf	RB7_ISR@RB7_Source^0,w,c
  2513   00195A  A4D8               	btfss	status,2,c
  2514   00195C  EFB2  F00C         	goto	i2u48_41
  2515   001960  EFB4  F00C         	goto	i2u48_40
  2516   001964                     i2u48_41:
  2517   001964  EFB6  F00C         	goto	i2l2795
  2518   001968                     i2u48_40:
  2519   001968  EFB6  F00C         	goto	i2l987
  2520   00196C                     i2l2795:
  2521   00196C                     i2l987:
  2522   00196C  0012               	return		;funcret
  2523   00196E                     __end_of_RB7_ISR:
  2524                           	callstack 0
  2525                           
  2526 ;; *************** function _RB6_ISR *****************
  2527 ;; Defined at:
  2528 ;;		line 264 in file "MCAL_Layer/Interrupt/mcal_external_interrupt.c"
  2529 ;; Parameters:    Size  Location     Type
  2530 ;;  RB6_Source      1    wreg     unsigned char 
  2531 ;; Auto vars:     Size  Location     Type
  2532 ;;  RB6_Source      1    0[COMRAM] unsigned char 
  2533 ;; Return value:  Size  Location     Type
  2534 ;;                  1    wreg      void 
  2535 ;; Registers used:
  2536 ;;		wreg, status,2, status,0
  2537 ;; Tracked objects:
  2538 ;;		On entry : 0/0
  2539 ;;		On exit  : 0/0
  2540 ;;		Unchanged: 0/0
  2541 ;; Data sizes:     COMRAM   BANK0   BANK1   BANK2   BANK3   BANK4   BANK5   BANK6   BANK7   BANK8   BANK9  BANK10  BANK1
      +1  BANK12  BANK13  BANK14  BANK15
  2542 ;;      Params:         0       0       0       0       0       0       0       0       0       0       0       0       
      +0       0       0       0       0
  2543 ;;      Locals:         1       0       0       0       0       0       0       0       0       0       0       0       
      +0       0       0       0       0
  2544 ;;      Temps:          0       0       0       0       0       0       0       0       0       0       0       0       
      +0       0       0       0       0
  2545 ;;      Totals:         1       0       0       0       0       0       0       0       0       0       0       0       
      +0       0       0       0       0
  2546 ;;Total ram usage:        1 bytes
  2547 ;; Hardware stack levels used: 1
  2548 ;; This function calls:
  2549 ;;		Nothing
  2550 ;; This function is called by:
  2551 ;;		_InterruptManager
  2552 ;; This function uses a non-reentrant model
  2553 ;;
  2554                           
  2555                           	psect	text16
  2556   00196E                     __ptext16:
  2557                           	callstack 0
  2558   00196E                     _RB6_ISR:
  2559                           	callstack 25
  2560                           
  2561                           ;incstack = 0
  2562                           ;RB6_ISR@RB6_Source stored from wreg
  2563   00196E  6E69               	movwf	RB6_ISR@RB6_Source^0,c
  2564   001970                     
  2565                           ;MCAL_Layer/Interrupt/mcal_external_interrupt.c: 264: void RB6_ISR(uint8 RB6_Source);MCA
      +                          L_Layer/Interrupt/mcal_external_interrupt.c: 265: {;MCAL_Layer/Interrupt/mcal_external_i
      +                          nterrupt.c: 266:     (INTCONbits.RBIF = 0);
  2566   001970  90F2               	bcf	242,0,c	;volatile
  2567   001972                     
  2568                           ;MCAL_Layer/Interrupt/mcal_external_interrupt.c: 267:     if(0 == RB6_Source)
  2569   001972  5069               	movf	RB6_ISR@RB6_Source^0,w,c
  2570   001974  A4D8               	btfss	status,2,c
  2571   001976  EFBF  F00C         	goto	i2u47_41
  2572   00197A  EFC1  F00C         	goto	i2u47_40
  2573   00197E                     i2u47_41:
  2574   00197E  EFC3  F00C         	goto	i2l2781
  2575   001982                     i2u47_40:
  2576   001982  EFC3  F00C         	goto	i2l976
  2577   001986                     i2l2781:
  2578   001986                     i2l976:
  2579   001986  0012               	return		;funcret
  2580   001988                     __end_of_RB6_ISR:
  2581                           	callstack 0
  2582                           
  2583 ;; *************** function _RB5_ISR *****************
  2584 ;; Defined at:
  2585 ;;		line 244 in file "MCAL_Layer/Interrupt/mcal_external_interrupt.c"
  2586 ;; Parameters:    Size  Location     Type
  2587 ;;  RB5_Source      1    wreg     unsigned char 
  2588 ;; Auto vars:     Size  Location     Type
  2589 ;;  RB5_Source      1    0[COMRAM] unsigned char 
  2590 ;; Return value:  Size  Location     Type
  2591 ;;                  1    wreg      void 
  2592 ;; Registers used:
  2593 ;;		wreg, status,2, status,0
  2594 ;; Tracked objects:
  2595 ;;		On entry : 0/0
  2596 ;;		On exit  : 0/0
  2597 ;;		Unchanged: 0/0
  2598 ;; Data sizes:     COMRAM   BANK0   BANK1   BANK2   BANK3   BANK4   BANK5   BANK6   BANK7   BANK8   BANK9  BANK10  BANK1
      +1  BANK12  BANK13  BANK14  BANK15
  2599 ;;      Params:         0       0       0       0       0       0       0       0       0       0       0       0       
      +0       0       0       0       0
  2600 ;;      Locals:         1       0       0       0       0       0       0       0       0       0       0       0       
      +0       0       0       0       0
  2601 ;;      Temps:          0       0       0       0       0       0       0       0       0       0       0       0       
      +0       0       0       0       0
  2602 ;;      Totals:         1       0       0       0       0       0       0       0       0       0       0       0       
      +0       0       0       0       0
  2603 ;;Total ram usage:        1 bytes
  2604 ;; Hardware stack levels used: 1
  2605 ;; This function calls:
  2606 ;;		Nothing
  2607 ;; This function is called by:
  2608 ;;		_InterruptManager
  2609 ;; This function uses a non-reentrant model
  2610 ;;
  2611                           
  2612                           	psect	text17
  2613   001988                     __ptext17:
  2614                           	callstack 0
  2615   001988                     _RB5_ISR:
  2616                           	callstack 25
  2617                           
  2618                           ;incstack = 0
  2619                           ;RB5_ISR@RB5_Source stored from wreg
  2620   001988  6E69               	movwf	RB5_ISR@RB5_Source^0,c
  2621   00198A                     
  2622                           ;MCAL_Layer/Interrupt/mcal_external_interrupt.c: 244: void RB5_ISR(uint8 RB5_Source);MCA
      +                          L_Layer/Interrupt/mcal_external_interrupt.c: 245: {;MCAL_Layer/Interrupt/mcal_external_i
      +                          nterrupt.c: 246:     (INTCONbits.RBIF = 0);
  2623   00198A  90F2               	bcf	242,0,c	;volatile
  2624   00198C                     
  2625                           ;MCAL_Layer/Interrupt/mcal_external_interrupt.c: 247:     if(0 == RB5_Source)
  2626   00198C  5069               	movf	RB5_ISR@RB5_Source^0,w,c
  2627   00198E  A4D8               	btfss	status,2,c
  2628   001990  EFCC  F00C         	goto	i2u46_41
  2629   001994  EFCE  F00C         	goto	i2u46_40
  2630   001998                     i2u46_41:
  2631   001998  EFD0  F00C         	goto	i2l2767
  2632   00199C                     i2u46_40:
  2633   00199C  EFD0  F00C         	goto	i2l965
  2634   0019A0                     i2l2767:
  2635   0019A0                     i2l965:
  2636   0019A0  0012               	return		;funcret
  2637   0019A2                     __end_of_RB5_ISR:
  2638                           	callstack 0
  2639                           
  2640 ;; *************** function _RB4_ISR *****************
  2641 ;; Defined at:
  2642 ;;		line 224 in file "MCAL_Layer/Interrupt/mcal_external_interrupt.c"
  2643 ;; Parameters:    Size  Location     Type
  2644 ;;  RB4_Source      1    wreg     unsigned char 
  2645 ;; Auto vars:     Size  Location     Type
  2646 ;;  RB4_Source      1    0[COMRAM] unsigned char 
  2647 ;; Return value:  Size  Location     Type
  2648 ;;                  1    wreg      void 
  2649 ;; Registers used:
  2650 ;;		wreg, status,2, status,0
  2651 ;; Tracked objects:
  2652 ;;		On entry : 0/0
  2653 ;;		On exit  : 0/0
  2654 ;;		Unchanged: 0/0
  2655 ;; Data sizes:     COMRAM   BANK0   BANK1   BANK2   BANK3   BANK4   BANK5   BANK6   BANK7   BANK8   BANK9  BANK10  BANK1
      +1  BANK12  BANK13  BANK14  BANK15
  2656 ;;      Params:         0       0       0       0       0       0       0       0       0       0       0       0       
      +0       0       0       0       0
  2657 ;;      Locals:         1       0       0       0       0       0       0       0       0       0       0       0       
      +0       0       0       0       0
  2658 ;;      Temps:          0       0       0       0       0       0       0       0       0       0       0       0       
      +0       0       0       0       0
  2659 ;;      Totals:         1       0       0       0       0       0       0       0       0       0       0       0       
      +0       0       0       0       0
  2660 ;;Total ram usage:        1 bytes
  2661 ;; Hardware stack levels used: 1
  2662 ;; This function calls:
  2663 ;;		Nothing
  2664 ;; This function is called by:
  2665 ;;		_InterruptManager
  2666 ;; This function uses a non-reentrant model
  2667 ;;
  2668                           
  2669                           	psect	text18
  2670   0019A2                     __ptext18:
  2671                           	callstack 0
  2672   0019A2                     _RB4_ISR:
  2673                           	callstack 25
  2674                           
  2675                           ;incstack = 0
  2676                           ;RB4_ISR@RB4_Source stored from wreg
  2677   0019A2  6E69               	movwf	RB4_ISR@RB4_Source^0,c
  2678   0019A4                     
  2679                           ;MCAL_Layer/Interrupt/mcal_external_interrupt.c: 224: void RB4_ISR(uint8 RB4_Source);MCA
      +                          L_Layer/Interrupt/mcal_external_interrupt.c: 225: {;MCAL_Layer/Interrupt/mcal_external_i
      +                          nterrupt.c: 226:     (INTCONbits.RBIF = 0);
  2680   0019A4  90F2               	bcf	242,0,c	;volatile
  2681   0019A6                     
  2682                           ;MCAL_Layer/Interrupt/mcal_external_interrupt.c: 227:     if(0 == RB4_Source)
  2683   0019A6  5069               	movf	RB4_ISR@RB4_Source^0,w,c
  2684   0019A8  A4D8               	btfss	status,2,c
  2685   0019AA  EFD9  F00C         	goto	i2u45_41
  2686   0019AE  EFDB  F00C         	goto	i2u45_40
  2687   0019B2                     i2u45_41:
  2688   0019B2  EFDD  F00C         	goto	i2l2753
  2689   0019B6                     i2u45_40:
  2690   0019B6  EFDD  F00C         	goto	i2l954
  2691   0019BA                     i2l2753:
  2692   0019BA                     i2l954:
  2693   0019BA  0012               	return		;funcret
  2694   0019BC                     __end_of_RB4_ISR:
  2695                           	callstack 0
  2696                           
  2697 ;; *************** function _MSSP_I2C_ISR *****************
  2698 ;; Defined at:
  2699 ;;		line 357 in file "MCAL_Layer/I2C/hal_i2c.c"
  2700 ;; Parameters:    Size  Location     Type
  2701 ;;		None
  2702 ;; Auto vars:     Size  Location     Type
  2703 ;;		None
  2704 ;; Return value:  Size  Location     Type
  2705 ;;                  1    wreg      void 
  2706 ;; Registers used:
  2707 ;;		None
  2708 ;; Tracked objects:
  2709 ;;		On entry : 0/0
  2710 ;;		On exit  : 0/0
  2711 ;;		Unchanged: 0/0
  2712 ;; Data sizes:     COMRAM   BANK0   BANK1   BANK2   BANK3   BANK4   BANK5   BANK6   BANK7   BANK8   BANK9  BANK10  BANK1
      +1  BANK12  BANK13  BANK14  BANK15
  2713 ;;      Params:         0       0       0       0       0       0       0       0       0       0       0       0       
      +0       0       0       0       0
  2714 ;;      Locals:         0       0       0       0       0       0       0       0       0       0       0       0       
      +0       0       0       0       0
  2715 ;;      Temps:          0       0       0       0       0       0       0       0       0       0       0       0       
      +0       0       0       0       0
  2716 ;;      Totals:         0       0       0       0       0       0       0       0       0       0       0       0       
      +0       0       0       0       0
  2717 ;;Total ram usage:        0 bytes
  2718 ;; Hardware stack levels used: 1
  2719 ;; This function calls:
  2720 ;;		Nothing
  2721 ;; This function is called by:
  2722 ;;		_InterruptManager
  2723 ;; This function uses a non-reentrant model
  2724 ;;
  2725                           
  2726                           	psect	text19
  2727   001A00                     __ptext19:
  2728                           	callstack 0
  2729   001A00                     _MSSP_I2C_ISR:
  2730                           	callstack 25
  2731   001A00                     
  2732                           ;MCAL_Layer/I2C/hal_i2c.c: 360:     (PIR1bits.SSPIF = 0);
  2733   001A00  969E               	bcf	158,3,c	;volatile
  2734   001A02  0012               	return		;funcret
  2735   001A04                     __end_of_MSSP_I2C_ISR:
  2736                           	callstack 0
  2737                           
  2738 ;; *************** function _MSSP_I2C_BC_ISR *****************
  2739 ;; Defined at:
  2740 ;;		line 372 in file "MCAL_Layer/I2C/hal_i2c.c"
  2741 ;; Parameters:    Size  Location     Type
  2742 ;;		None
  2743 ;; Auto vars:     Size  Location     Type
  2744 ;;		None
  2745 ;; Return value:  Size  Location     Type
  2746 ;;                  1    wreg      void 
  2747 ;; Registers used:
  2748 ;;		None
  2749 ;; Tracked objects:
  2750 ;;		On entry : 0/0
  2751 ;;		On exit  : 0/0
  2752 ;;		Unchanged: 0/0
  2753 ;; Data sizes:     COMRAM   BANK0   BANK1   BANK2   BANK3   BANK4   BANK5   BANK6   BANK7   BANK8   BANK9  BANK10  BANK1
      +1  BANK12  BANK13  BANK14  BANK15
  2754 ;;      Params:         0       0       0       0       0       0       0       0       0       0       0       0       
      +0       0       0       0       0
  2755 ;;      Locals:         0       0       0       0       0       0       0       0       0       0       0       0       
      +0       0       0       0       0
  2756 ;;      Temps:          0       0       0       0       0       0       0       0       0       0       0       0       
      +0       0       0       0       0
  2757 ;;      Totals:         0       0       0       0       0       0       0       0       0       0       0       0       
      +0       0       0       0       0
  2758 ;;Total ram usage:        0 bytes
  2759 ;; Hardware stack levels used: 1
  2760 ;; This function calls:
  2761 ;;		Nothing
  2762 ;; This function is called by:
  2763 ;;		_InterruptManager
  2764 ;; This function uses a non-reentrant model
  2765 ;;
  2766                           
  2767                           	psect	text20
  2768   001A04                     __ptext20:
  2769                           	callstack 0
  2770   001A04                     _MSSP_I2C_BC_ISR:
  2771                           	callstack 25
  2772   001A04                     
  2773                           ;MCAL_Layer/I2C/hal_i2c.c: 375:     (PIR2bits.BCLIF = 0);
  2774   001A04  96A1               	bcf	161,3,c	;volatile
  2775   001A06  0012               	return		;funcret
  2776   001A08                     __end_of_MSSP_I2C_BC_ISR:
  2777                           	callstack 0
  2778                           
  2779 ;; *************** function _INT2_ISR *****************
  2780 ;; Defined at:
  2781 ;;		line 213 in file "MCAL_Layer/Interrupt/mcal_external_interrupt.c"
  2782 ;; Parameters:    Size  Location     Type
  2783 ;;		None
  2784 ;; Auto vars:     Size  Location     Type
  2785 ;;		None
  2786 ;; Return value:  Size  Location     Type
  2787 ;;                  1    wreg      void 
  2788 ;; Registers used:
  2789 ;;		None
  2790 ;; Tracked objects:
  2791 ;;		On entry : 0/0
  2792 ;;		On exit  : 0/0
  2793 ;;		Unchanged: 0/0
  2794 ;; Data sizes:     COMRAM   BANK0   BANK1   BANK2   BANK3   BANK4   BANK5   BANK6   BANK7   BANK8   BANK9  BANK10  BANK1
      +1  BANK12  BANK13  BANK14  BANK15
  2795 ;;      Params:         0       0       0       0       0       0       0       0       0       0       0       0       
      +0       0       0       0       0
  2796 ;;      Locals:         0       0       0       0       0       0       0       0       0       0       0       0       
      +0       0       0       0       0
  2797 ;;      Temps:          0       0       0       0       0       0       0       0       0       0       0       0       
      +0       0       0       0       0
  2798 ;;      Totals:         0       0       0       0       0       0       0       0       0       0       0       0       
      +0       0       0       0       0
  2799 ;;Total ram usage:        0 bytes
  2800 ;; Hardware stack levels used: 1
  2801 ;; This function calls:
  2802 ;;		Nothing
  2803 ;; This function is called by:
  2804 ;;		_InterruptManager
  2805 ;; This function uses a non-reentrant model
  2806 ;;
  2807                           
  2808                           	psect	text21
  2809   001A08                     __ptext21:
  2810                           	callstack 0
  2811   001A08                     _INT2_ISR:
  2812                           	callstack 25
  2813   001A08                     
  2814                           ;MCAL_Layer/Interrupt/mcal_external_interrupt.c: 215:     (INTCON3bits.INT2IF = 0);
  2815   001A08  92F0               	bcf	240,1,c	;volatile
  2816   001A0A  0012               	return		;funcret
  2817   001A0C                     __end_of_INT2_ISR:
  2818                           	callstack 0
  2819                           
  2820 ;; *************** function _INT1_ISR *****************
  2821 ;; Defined at:
  2822 ;;		line 203 in file "MCAL_Layer/Interrupt/mcal_external_interrupt.c"
  2823 ;; Parameters:    Size  Location     Type
  2824 ;;		None
  2825 ;; Auto vars:     Size  Location     Type
  2826 ;;		None
  2827 ;; Return value:  Size  Location     Type
  2828 ;;                  1    wreg      void 
  2829 ;; Registers used:
  2830 ;;		None
  2831 ;; Tracked objects:
  2832 ;;		On entry : 0/0
  2833 ;;		On exit  : 0/0
  2834 ;;		Unchanged: 0/0
  2835 ;; Data sizes:     COMRAM   BANK0   BANK1   BANK2   BANK3   BANK4   BANK5   BANK6   BANK7   BANK8   BANK9  BANK10  BANK1
      +1  BANK12  BANK13  BANK14  BANK15
  2836 ;;      Params:         0       0       0       0       0       0       0       0       0       0       0       0       
      +0       0       0       0       0
  2837 ;;      Locals:         0       0       0       0       0       0       0       0       0       0       0       0       
      +0       0       0       0       0
  2838 ;;      Temps:          0       0       0       0       0       0       0       0       0       0       0       0       
      +0       0       0       0       0
  2839 ;;      Totals:         0       0       0       0       0       0       0       0       0       0       0       0       
      +0       0       0       0       0
  2840 ;;Total ram usage:        0 bytes
  2841 ;; Hardware stack levels used: 1
  2842 ;; This function calls:
  2843 ;;		Nothing
  2844 ;; This function is called by:
  2845 ;;		_InterruptManager
  2846 ;; This function uses a non-reentrant model
  2847 ;;
  2848                           
  2849                           	psect	text22
  2850   001A0C                     __ptext22:
  2851                           	callstack 0
  2852   001A0C                     _INT1_ISR:
  2853                           	callstack 25
  2854   001A0C                     
  2855                           ;MCAL_Layer/Interrupt/mcal_external_interrupt.c: 205:     (INTCON3bits.INT1IF = 0);
  2856   001A0C  90F0               	bcf	240,0,c	;volatile
  2857   001A0E  0012               	return		;funcret
  2858   001A10                     __end_of_INT1_ISR:
  2859                           	callstack 0
  2860                           
  2861 ;; *************** function _INT0_ISR *****************
  2862 ;; Defined at:
  2863 ;;		line 193 in file "MCAL_Layer/Interrupt/mcal_external_interrupt.c"
  2864 ;; Parameters:    Size  Location     Type
  2865 ;;		None
  2866 ;; Auto vars:     Size  Location     Type
  2867 ;;		None
  2868 ;; Return value:  Size  Location     Type
  2869 ;;                  1    wreg      void 
  2870 ;; Registers used:
  2871 ;;		None
  2872 ;; Tracked objects:
  2873 ;;		On entry : 0/0
  2874 ;;		On exit  : 0/0
  2875 ;;		Unchanged: 0/0
  2876 ;; Data sizes:     COMRAM   BANK0   BANK1   BANK2   BANK3   BANK4   BANK5   BANK6   BANK7   BANK8   BANK9  BANK10  BANK1
      +1  BANK12  BANK13  BANK14  BANK15
  2877 ;;      Params:         0       0       0       0       0       0       0       0       0       0       0       0       
      +0       0       0       0       0
  2878 ;;      Locals:         0       0       0       0       0       0       0       0       0       0       0       0       
      +0       0       0       0       0
  2879 ;;      Temps:          0       0       0       0       0       0       0       0       0       0       0       0       
      +0       0       0       0       0
  2880 ;;      Totals:         0       0       0       0       0       0       0       0       0       0       0       0       
      +0       0       0       0       0
  2881 ;;Total ram usage:        0 bytes
  2882 ;; Hardware stack levels used: 1
  2883 ;; This function calls:
  2884 ;;		Nothing
  2885 ;; This function is called by:
  2886 ;;		_InterruptManager
  2887 ;; This function uses a non-reentrant model
  2888 ;;
  2889                           
  2890                           	psect	text23
  2891   001A10                     __ptext23:
  2892                           	callstack 0
  2893   001A10                     _INT0_ISR:
  2894                           	callstack 25
  2895   001A10                     
  2896                           ;MCAL_Layer/Interrupt/mcal_external_interrupt.c: 195:     (INTCONbits.INT0IF = 0);
  2897   001A10  92F2               	bcf	242,1,c	;volatile
  2898   001A12  0012               	return		;funcret
  2899   001A14                     __end_of_INT0_ISR:
  2900                           	callstack 0
  2901                           
  2902 ;; *************** function _CCP2_ISR *****************
  2903 ;; Defined at:
  2904 ;;		line 401 in file "MCAL_Layer/CCP/hal_ccp.c"
  2905 ;; Parameters:    Size  Location     Type
  2906 ;;		None
  2907 ;; Auto vars:     Size  Location     Type
  2908 ;;		None
  2909 ;; Return value:  Size  Location     Type
  2910 ;;                  1    wreg      void 
  2911 ;; Registers used:
  2912 ;;		None
  2913 ;; Tracked objects:
  2914 ;;		On entry : 0/0
  2915 ;;		On exit  : 0/0
  2916 ;;		Unchanged: 0/0
  2917 ;; Data sizes:     COMRAM   BANK0   BANK1   BANK2   BANK3   BANK4   BANK5   BANK6   BANK7   BANK8   BANK9  BANK10  BANK1
      +1  BANK12  BANK13  BANK14  BANK15
  2918 ;;      Params:         0       0       0       0       0       0       0       0       0       0       0       0       
      +0       0       0       0       0
  2919 ;;      Locals:         0       0       0       0       0       0       0       0       0       0       0       0       
      +0       0       0       0       0
  2920 ;;      Temps:          0       0       0       0       0       0       0       0       0       0       0       0       
      +0       0       0       0       0
  2921 ;;      Totals:         0       0       0       0       0       0       0       0       0       0       0       0       
      +0       0       0       0       0
  2922 ;;Total ram usage:        0 bytes
  2923 ;; Hardware stack levels used: 1
  2924 ;; This function calls:
  2925 ;;		Nothing
  2926 ;; This function is called by:
  2927 ;;		_InterruptManager
  2928 ;; This function uses a non-reentrant model
  2929 ;;
  2930                           
  2931                           	psect	text24
  2932   001A14                     __ptext24:
  2933                           	callstack 0
  2934   001A14                     _CCP2_ISR:
  2935                           	callstack 25
  2936   001A14                     
  2937                           ;MCAL_Layer/CCP/hal_ccp.c: 403:     (PIR2bits.CCP2IF = 0);
  2938   001A14  90A1               	bcf	161,0,c	;volatile
  2939   001A16  0012               	return		;funcret
  2940   001A18                     __end_of_CCP2_ISR:
  2941                           	callstack 0
  2942                           
  2943 ;; *************** function _CCP1_ISR *****************
  2944 ;; Defined at:
  2945 ;;		line 388 in file "MCAL_Layer/CCP/hal_ccp.c"
  2946 ;; Parameters:    Size  Location     Type
  2947 ;;		None
  2948 ;; Auto vars:     Size  Location     Type
  2949 ;;		None
  2950 ;; Return value:  Size  Location     Type
  2951 ;;                  1    wreg      void 
  2952 ;; Registers used:
  2953 ;;		None
  2954 ;; Tracked objects:
  2955 ;;		On entry : 0/0
  2956 ;;		On exit  : 0/0
  2957 ;;		Unchanged: 0/0
  2958 ;; Data sizes:     COMRAM   BANK0   BANK1   BANK2   BANK3   BANK4   BANK5   BANK6   BANK7   BANK8   BANK9  BANK10  BANK1
      +1  BANK12  BANK13  BANK14  BANK15
  2959 ;;      Params:         0       0       0       0       0       0       0       0       0       0       0       0       
      +0       0       0       0       0
  2960 ;;      Locals:         0       0       0       0       0       0       0       0       0       0       0       0       
      +0       0       0       0       0
  2961 ;;      Temps:          0       0       0       0       0       0       0       0       0       0       0       0       
      +0       0       0       0       0
  2962 ;;      Totals:         0       0       0       0       0       0       0       0       0       0       0       0       
      +0       0       0       0       0
  2963 ;;Total ram usage:        0 bytes
  2964 ;; Hardware stack levels used: 1
  2965 ;; This function calls:
  2966 ;;		Nothing
  2967 ;; This function is called by:
  2968 ;;		_InterruptManager
  2969 ;; This function uses a non-reentrant model
  2970 ;;
  2971                           
  2972                           	psect	text25
  2973   001A18                     __ptext25:
  2974                           	callstack 0
  2975   001A18                     _CCP1_ISR:
  2976                           	callstack 25
  2977   001A18                     
  2978                           ;MCAL_Layer/CCP/hal_ccp.c: 390:     (PIR1bits.CCP1IF = 0);
  2979   001A18  949E               	bcf	158,2,c	;volatile
  2980   001A1A  0012               	return		;funcret
  2981   001A1C                     __end_of_CCP1_ISR:
  2982                           	callstack 0
  2983                           
  2984 ;; *************** function _ADC_ISR *****************
  2985 ;; Defined at:
  2986 ;;		line 341 in file "MCAL_Layer/ADC/hal_adc.c"
  2987 ;; Parameters:    Size  Location     Type
  2988 ;;		None
  2989 ;; Auto vars:     Size  Location     Type
  2990 ;;		None
  2991 ;; Return value:  Size  Location     Type
  2992 ;;                  1    wreg      void 
  2993 ;; Registers used:
  2994 ;;		None
  2995 ;; Tracked objects:
  2996 ;;		On entry : 0/0
  2997 ;;		On exit  : 0/0
  2998 ;;		Unchanged: 0/0
  2999 ;; Data sizes:     COMRAM   BANK0   BANK1   BANK2   BANK3   BANK4   BANK5   BANK6   BANK7   BANK8   BANK9  BANK10  BANK1
      +1  BANK12  BANK13  BANK14  BANK15
  3000 ;;      Params:         0       0       0       0       0       0       0       0       0       0       0       0       
      +0       0       0       0       0
  3001 ;;      Locals:         0       0       0       0       0       0       0       0       0       0       0       0       
      +0       0       0       0       0
  3002 ;;      Temps:          0       0       0       0       0       0       0       0       0       0       0       0       
      +0       0       0       0       0
  3003 ;;      Totals:         0       0       0       0       0       0       0       0       0       0       0       0       
      +0       0       0       0       0
  3004 ;;Total ram usage:        0 bytes
  3005 ;; Hardware stack levels used: 1
  3006 ;; This function calls:
  3007 ;;		Nothing
  3008 ;; This function is called by:
  3009 ;;		_InterruptManager
  3010 ;; This function uses a non-reentrant model
  3011 ;;
  3012                           
  3013                           	psect	text26
  3014   001A1C                     __ptext26:
  3015                           	callstack 0
  3016   001A1C                     _ADC_ISR:
  3017                           	callstack 25
  3018   001A1C                     
  3019                           ;MCAL_Layer/ADC/hal_adc.c: 343:     (PIR1bits.ADIF = 0);
  3020   001A1C  9C9E               	bcf	158,6,c	;volatile
  3021   001A1E  0012               	return		;funcret
  3022   001A20                     __end_of_ADC_ISR:
  3023                           	callstack 0
  3024                           
  3025                           	psect	rparam
  3026   000000                     
  3027                           	psect	temp
  3028   00007D                     btemp:
  3029                           	callstack 0
  3030   00007D                     	ds	1
  3031   000000                     int$flags	set	btemp
  3032   000000                     wtemp8	set	btemp+1
  3033   000000                     ttemp5	set	btemp+1
  3034   000000                     ttemp6	set	btemp+4
  3035   000000                     ttemp7	set	btemp+8
  3036                           
  3037                           	psect	idloc
  3038                           
  3039                           ;Config register IDLOC0 @ 0x200000
  3040                           ;	unspecified, using default values
  3041   200000                     	org	2097152
  3042   200000  FF                 	db	255
  3043                           
  3044                           ;Config register IDLOC1 @ 0x200001
  3045                           ;	unspecified, using default values
  3046   200001                     	org	2097153
  3047   200001  FF                 	db	255
  3048                           
  3049                           ;Config register IDLOC2 @ 0x200002
  3050                           ;	unspecified, using default values
  3051   200002                     	org	2097154
  3052   200002  FF                 	db	255
  3053                           
  3054                           ;Config register IDLOC3 @ 0x200003
  3055                           ;	unspecified, using default values
  3056   200003                     	org	2097155
  3057   200003  FF                 	db	255
  3058                           
  3059                           ;Config register IDLOC4 @ 0x200004
  3060                           ;	unspecified, using default values
  3061   200004                     	org	2097156
  3062   200004  FF                 	db	255
  3063                           
  3064                           ;Config register IDLOC5 @ 0x200005
  3065                           ;	unspecified, using default values
  3066   200005                     	org	2097157
  3067   200005  FF                 	db	255
  3068                           
  3069                           ;Config register IDLOC6 @ 0x200006
  3070                           ;	unspecified, using default values
  3071   200006                     	org	2097158
  3072   200006  FF                 	db	255
  3073                           
  3074                           ;Config register IDLOC7 @ 0x200007
  3075                           ;	unspecified, using default values
  3076   200007                     	org	2097159
  3077   200007  FF                 	db	255
  3078                           
  3079                           	psect	config
  3080                           
  3081                           ; Padding undefined space
  3082   300000                     	org	3145728
  3083   300000  FF                 	db	255
  3084                           
  3085                           ;Config register CONFIG1H @ 0x300001
  3086                           ;	Oscillator Selection bits
  3087                           ;	OSC = HS, HS oscillator
  3088                           ;	Fail-Safe Clock Monitor Enable bit
  3089                           ;	FCMEN = OFF, Fail-Safe Clock Monitor disabled
  3090                           ;	Internal/External Oscillator Switchover bit
  3091                           ;	IESO = OFF, Oscillator Switchover mode disabled
  3092   300001                     	org	3145729
  3093   300001  02                 	db	2
  3094                           
  3095                           ;Config register CONFIG2L @ 0x300002
  3096                           ;	Power-up Timer Enable bit
  3097                           ;	PWRT = OFF, PWRT disabled
  3098                           ;	Brown-out Reset Enable bits
  3099                           ;	BOREN = OFF, Brown-out Reset disabled in hardware and software
  3100                           ;	Brown Out Reset Voltage bits
  3101                           ;	BORV = 1, 
  3102   300002                     	org	3145730
  3103   300002  09                 	db	9
  3104                           
  3105                           ;Config register CONFIG2H @ 0x300003
  3106                           ;	Watchdog Timer Enable bit
  3107                           ;	WDT = OFF, WDT disabled (control is placed on the SWDTEN bit)
  3108                           ;	Watchdog Timer Postscale Select bits
  3109                           ;	WDTPS = 512, 1:512
  3110   300003                     	org	3145731
  3111   300003  12                 	db	18
  3112                           
  3113                           ; Padding undefined space
  3114   300004                     	org	3145732
  3115   300004  FF                 	db	255
  3116                           
  3117                           ;Config register CONFIG3H @ 0x300005
  3118                           ;	CCP2 MUX bit
  3119                           ;	CCP2MX = PORTC, CCP2 input/output is multiplexed with RC1
  3120                           ;	PORTB A/D Enable bit
  3121                           ;	PBADEN = OFF, PORTB<4:0> pins are configured as digital I/O on Reset
  3122                           ;	Low-Power Timer1 Oscillator Enable bit
  3123                           ;	LPT1OSC = OFF, Timer1 configured for higher power operation
  3124                           ;	MCLR Pin Enable bit
  3125                           ;	MCLRE = ON, MCLR pin enabled; RE3 input pin disabled
  3126   300005                     	org	3145733
  3127   300005  81                 	db	129
  3128                           
  3129                           ;Config register CONFIG4L @ 0x300006
  3130                           ;	Stack Full/Underflow Reset Enable bit
  3131                           ;	STVREN = ON, Stack full/underflow will cause Reset
  3132                           ;	Single-Supply ICSP Enable bit
  3133                           ;	LVP = OFF, Single-Supply ICSP disabled
  3134                           ;	Extended Instruction Set Enable bit
  3135                           ;	XINST = OFF, Instruction set extension and Indexed Addressing mode disabled (Legacy mo
      +                          de)
  3136                           ;	Background Debugger Enable bit
  3137                           ;	DEBUG = 0x1, unprogrammed default
  3138   300006                     	org	3145734
  3139   300006  81                 	db	129
  3140                           
  3141                           ; Padding undefined space
  3142   300007                     	org	3145735
  3143   300007  FF                 	db	255
  3144                           
  3145                           ;Config register CONFIG5L @ 0x300008
  3146                           ;	Code Protection bit
  3147                           ;	CP0 = OFF, Block 0 (000800-003FFFh) not code-protected
  3148                           ;	Code Protection bit
  3149                           ;	CP1 = OFF, Block 1 (004000-007FFFh) not code-protected
  3150                           ;	Code Protection bit
  3151                           ;	CP2 = OFF, Block 2 (008000-00BFFFh) not code-protected
  3152                           ;	Code Protection bit
  3153                           ;	CP3 = OFF, Block 3 (00C000-00FFFFh) not code-protected
  3154   300008                     	org	3145736
  3155   300008  0F                 	db	15
  3156                           
  3157                           ;Config register CONFIG5H @ 0x300009
  3158                           ;	Boot Block Code Protection bit
  3159                           ;	CPB = OFF, Boot block (000000-0007FFh) not code-protected
  3160                           ;	Data EEPROM Code Protection bit
  3161                           ;	CPD = OFF, Data EEPROM not code-protected
  3162   300009                     	org	3145737
  3163   300009  C0                 	db	192
  3164                           
  3165                           ;Config register CONFIG6L @ 0x30000A
  3166                           ;	Write Protection bit
  3167                           ;	WRT0 = OFF, Block 0 (000800-003FFFh) not write-protected
  3168                           ;	Write Protection bit
  3169                           ;	WRT1 = OFF, Block 1 (004000-007FFFh) not write-protected
  3170                           ;	Write Protection bit
  3171                           ;	WRT2 = OFF, Block 2 (008000-00BFFFh) not write-protected
  3172                           ;	Write Protection bit
  3173                           ;	WRT3 = OFF, Block 3 (00C000-00FFFFh) not write-protected
  3174   30000A                     	org	3145738
  3175   30000A  0F                 	db	15
  3176                           
  3177                           ;Config register CONFIG6H @ 0x30000B
  3178                           ;	Configuration Register Write Protection bit
  3179                           ;	WRTC = OFF, Configuration registers (300000-3000FFh) not write-protected
  3180                           ;	Boot Block Write Protection bit
  3181                           ;	WRTB = OFF, Boot Block (000000-0007FFh) not write-protected
  3182                           ;	Data EEPROM Write Protection bit
  3183                           ;	WRTD = OFF, Data EEPROM not write-protected
  3184   30000B                     	org	3145739
  3185   30000B  E0                 	db	224
  3186                           
  3187                           ;Config register CONFIG7L @ 0x30000C
  3188                           ;	Table Read Protection bit
  3189                           ;	EBTR0 = OFF, Block 0 (000800-003FFFh) not protected from table reads executed in other
      +                           blocks
  3190                           ;	Table Read Protection bit
  3191                           ;	EBTR1 = OFF, Block 1 (004000-007FFFh) not protected from table reads executed in other
      +                           blocks
  3192                           ;	Table Read Protection bit
  3193                           ;	EBTR2 = OFF, Block 2 (008000-00BFFFh) not protected from table reads executed in other
      +                           blocks
  3194                           ;	Table Read Protection bit
  3195                           ;	EBTR3 = OFF, Block 3 (00C000-00FFFFh) not protected from table reads executed in other
      +                           blocks
  3196   30000C                     	org	3145740
  3197   30000C  0F                 	db	15
  3198                           
  3199                           ;Config register CONFIG7H @ 0x30000D
  3200                           ;	Boot Block Table Read Protection bit
  3201                           ;	EBTRB = OFF, Boot Block (000000-0007FFh) not protected from table reads executed in ot
      +                          her blocks
  3202   30000D                     	org	3145741
  3203   30000D  40                 	db	64
  3204                           tosu	equ	0xFFF
  3205                           tosh	equ	0xFFE
  3206                           tosl	equ	0xFFD
  3207                           stkptr	equ	0xFFC
  3208                           pclatu	equ	0xFFB
  3209                           pclath	equ	0xFFA
  3210                           pcl	equ	0xFF9
  3211                           tblptru	equ	0xFF8
  3212                           tblptrh	equ	0xFF7
  3213                           tblptrl	equ	0xFF6
  3214                           tablat	equ	0xFF5
  3215                           prodh	equ	0xFF4
  3216                           prodl	equ	0xFF3
  3217                           indf0	equ	0xFEF
  3218                           postinc0	equ	0xFEE
  3219                           postdec0	equ	0xFED
  3220                           preinc0	equ	0xFEC
  3221                           plusw0	equ	0xFEB
  3222                           fsr0h	equ	0xFEA
  3223                           fsr0l	equ	0xFE9
  3224                           wreg	equ	0xFE8
  3225                           indf1	equ	0xFE7
  3226                           postinc1	equ	0xFE6
  3227                           postdec1	equ	0xFE5
  3228                           preinc1	equ	0xFE4
  3229                           plusw1	equ	0xFE3
  3230                           fsr1h	equ	0xFE2
  3231                           fsr1l	equ	0xFE1
  3232                           bsr	equ	0xFE0
  3233                           indf2	equ	0xFDF
  3234                           postinc2	equ	0xFDE
  3235                           postdec2	equ	0xFDD
  3236                           preinc2	equ	0xFDC
  3237                           plusw2	equ	0xFDB
  3238                           fsr2h	equ	0xFDA
  3239                           fsr2l	equ	0xFD9
  3240                           status	equ	0xFD8

Data Sizes:
    Strings     3
    Constant    16
    Data        52
    BSS         72
    Persistent  0
    Stack       0

Auto Spaces:
    Space          Size  Autos    Used
    COMRAM          126     20     124
    BANK0           128      2      22
    BANK1           256      0       0
    BANK2           256      0       0
    BANK3           256      0       0
    BANK4           256      0       0
    BANK5           256      0       0
    BANK6           256      0       0
    BANK7           256      0       0
    BANK8           256      0       0
    BANK9           256      0       0
    BANK10          256      0       0
    BANK11          256      0       0
    BANK12          256      0       0
    BANK13          256      0       0
    BANK14          256      0       0
    BANK15          128      0       0

Pointer List with Targets:

    vfprintf$2	PTR PTR void  size(2) Largest target is 2
		 -> sprintf@ap(COMRAM[2]), 

    vfprintf$1	PTR const unsigned char  size(2) Largest target is 3
		 -> STR_3(CODE[3]), STR_2(CODE[3]), STR_1(CODE[3]), 

    vfprintf$0	PTR struct _IO_FILE size(2) Largest target is 12
		 -> sprintf@f(COMRAM[12]), 

    CCP_PMW_MODE_CONFIG$0	PTR const struct . size(2) Largest target is 0

    S4508$source	PTR const unsigned char  size(2) Largest target is 0

    f...source	PTR const unsigned char  size(2) Largest target is 0

    S4508$buffer	PTR unsigned char  size(2) Largest target is 0

    f...buffer	PTR unsigned char  size(2) Largest target is 0

    USART_OverrunErrorHandler	PTR FTN()void  size(2) Largest target is 1
		 -> NULL(), 

    USART_FramingErrorHandler	PTR FTN()void  size(2) Largest target is 1
		 -> NULL(), 

    USART_RxDefaultInterruptHandler	PTR FTN()void  size(2) Largest target is 1
		 -> NULL(), 

    USART_ASYNCRONOUS_RX_Init@_usart.USART_OverrunErrorHandler	PTR FTN()void  size(2) Largest target is 0

    USART_ASYNCRONOUS_RX_Init@_usart.USART_FramingErrorHandler	PTR FTN()void  size(2) Largest target is 0

    USART_ASYNCRONOUS_RX_Init@_usart.USART_RxDefaultInterruptHandler	PTR FTN()void  size(2) Largest target is 0

    USART_ASYNCRONOUS_RX_Init@_usart.USART_TxDefaultInterruptHandler	PTR FTN()void  size(2) Largest target is 0

    USART_TxDefaultInterruptHandler	PTR FTN()void  size(2) Largest target is 1
		 -> NULL(), 

    USART_ASYNCRONOUS_TX_Init@_usart.USART_OverrunErrorHandler	PTR FTN()void  size(2) Largest target is 0

    USART_ASYNCRONOUS_TX_Init@_usart.USART_FramingErrorHandler	PTR FTN()void  size(2) Largest target is 0

    USART_ASYNCRONOUS_TX_Init@_usart.USART_RxDefaultInterruptHandler	PTR FTN()void  size(2) Largest target is 0

    USART_ASYNCRONOUS_TX_Init@_usart.USART_TxDefaultInterruptHandler	PTR FTN()void  size(2) Largest target is 0

    S3608$USART_OverrunErrorHandler	PTR FTN()void  size(2) Largest target is 0

    USART_Baud_Rate_Calculation@_usart.USART_OverrunErrorHandler	PTR FTN()void  size(2) Largest target is 0

    S3608$USART_FramingErrorHandler	PTR FTN()void  size(2) Largest target is 0

    USART_Baud_Rate_Calculation@_usart.USART_FramingErrorHandler	PTR FTN()void  size(2) Largest target is 0

    S3608$USART_RxDefaultInterruptHandler	PTR FTN()void  size(2) Largest target is 0

    USART_Baud_Rate_Calculation@_usart.USART_RxDefaultInterruptHandler	PTR FTN()void  size(2) Largest target is 0

    S3608$USART_TxDefaultInterruptHandler	PTR FTN()void  size(2) Largest target is 0

    USART_Baud_Rate_Calculation@_usart.USART_TxDefaultInterruptHandler	PTR FTN()void  size(2) Largest target is 0

    Timer3_Mode_Selection@_timer.TMR3_InterruptHandler	PTR FTN()void  size(2) Largest target is 0

    TMR3_InterruptHandler	PTR FTN()void  size(2) Largest target is 1
		 -> NULL(), 

    S3414$TMR3_InterruptHandler	PTR FTN()void  size(2) Largest target is 0

    Timer3_Init@_timer.TMR3_InterruptHandler	PTR FTN()void  size(2) Largest target is 0

    TMR2_InterruptHandler	PTR FTN()void  size(2) Largest target is 1
		 -> NULL(), 

    S3283$TMR2_InterruptHandler	PTR FTN()void  size(2) Largest target is 0

    Timer2_Init@_timer.TMR2_InterruptHandler	PTR FTN()void  size(2) Largest target is 0

    Timer1_Mode_Selection@_timer.TMR1_InterruptHandler	PTR FTN()void  size(2) Largest target is 0

    TMR1_InterruptHandler	PTR FTN()void  size(2) Largest target is 1
		 -> NULL(), 

    S3094$TMR1_InterruptHandler	PTR FTN()void  size(2) Largest target is 0

    Timer1_Init@_timer.TMR1_InterruptHandler	PTR FTN()void  size(2) Largest target is 0

    Timer0_Reigster_Size_Config@_timer.TMR0_InterruptHandler	PTR FTN()void  size(2) Largest target is 0

    Timer0_Mode_Selection@_timer.TMR0_InterruptHandler	PTR FTN()void  size(2) Largest target is 0

    Timer0_Prescaler_Config@_timer.TMR0_InterruptHandler	PTR FTN()void  size(2) Largest target is 0

    TMR0_InterruptHandler	PTR FTN()void  size(2) Largest target is 1
		 -> NULL(), 

    S2929$TMR0_InterruptHandler	PTR FTN()void  size(2) Largest target is 0

    Timer0_Init@_timer.TMR0_InterruptHandler	PTR FTN()void  size(2) Largest target is 0

    Interrupt_INTx_SetInterruptHandler@int_obj.EXT_InterruptHandler	PTR FTN()void  size(2) Largest target is 0

    Interrupt_INTx_Clear_Flag@int_obj.EXT_InterruptHandler	PTR FTN()void  size(2) Largest target is 0

    Interrupt_INTx_Pin_Init@int_obj.EXT_InterruptHandler	PTR FTN()void  size(2) Largest target is 0

    Interrupt_INTx_Edge_Init@int_obj.EXT_InterruptHandler	PTR FTN()void  size(2) Largest target is 0

    Interrupt_INTx_Disable@int_obj.EXT_InterruptHandler	PTR FTN()void  size(2) Largest target is 0

    S2321$EXT_InterruptHandler	PTR FTN()void  size(2) Largest target is 0

    Interrupt_INTx_Enable@int_obj.EXT_InterruptHandler	PTR FTN()void  size(2) Largest target is 0

    S2437$EXT_InterruptHandler_LOW	PTR FTN()void  size(2) Largest target is 0

    Interrupt_RBx_Init@int_obj.EXT_InterruptHandler_LOW	PTR FTN()void  size(2) Largest target is 0

    S2437$EXT_InterruptHandler_HIGH	PTR FTN()void  size(2) Largest target is 0

    Interrupt_RBx_Init@int_obj.EXT_InterruptHandler_HIGH	PTR FTN()void  size(2) Largest target is 0

    RB7_InterruptHandler_LOW	PTR FTN()void  size(2) Largest target is 1
		 -> NULL(), 

    RB7_InterruptHandler_HIGH	PTR FTN()void  size(2) Largest target is 1
		 -> NULL(), 

    RB6_InterruptHandler_LOW	PTR FTN()void  size(2) Largest target is 1
		 -> NULL(), 

    RB6_InterruptHandler_HIGH	PTR FTN()void  size(2) Largest target is 1
		 -> NULL(), 

    RB5_InterruptHandler_LOW	PTR FTN()void  size(2) Largest target is 1
		 -> NULL(), 

    RB5_InterruptHandler_HIGH	PTR FTN()void  size(2) Largest target is 1
		 -> NULL(), 

    RB4_InterruptHandler_LOW	PTR FTN()void  size(2) Largest target is 1
		 -> NULL(), 

    RB4_InterruptHandler_HIGH	PTR FTN()void  size(2) Largest target is 1
		 -> NULL(), 

    INT2_InterruptHandler	PTR FTN()void  size(2) Largest target is 1
		 -> NULL(), 

    INT1_InterruptHandler	PTR FTN()void  size(2) Largest target is 1
		 -> NULL(), 

    INT0_InterruptHandler	PTR FTN()void  size(2) Largest target is 1
		 -> NULL(), 

    MSSP_I2C_Bus_Collision_Interrupt_Configurations@_i2c.MSSP_I2C_Report_Receive_Overflow	PTR FTN()void  size(2) Largest target is 0

    MSSP_I2C_Bus_Collision_Interrupt_Configurations@_i2c.MSSP_I2C_Report_Write_Collision	PTR FTN()void  size(2) Largest target is 0

    MSSP_I2C_Bus_Collision_Interrupt_Configurations@_i2c.MSSP_I2C_DefaultInterruptHandler	PTR FTN()void  size(2) Largest target is 0

    MSSP_I2C_Interrupt_Configurations@_i2c.MSSP_I2C_Report_Receive_Overflow	PTR FTN()void  size(2) Largest target is 0

    MSSP_I2C_Interrupt_Configurations@_i2c.MSSP_I2C_Report_Write_Collision	PTR FTN()void  size(2) Largest target is 0

    MSSP_I2C_Interrupt_Configurations@_i2c.MSSP_I2C_DefaultInterruptHandler	PTR FTN()void  size(2) Largest target is 0

    MSSP_I2C_Report_Receive_Overflow_InterruptHandler	PTR FTN()void  size(2) Largest target is 1
		 -> NULL(), 

    MSSP_I2C_Slave_Mode_Configurations@_i2c.MSSP_I2C_Report_Receive_Overflow	PTR FTN()void  size(2) Largest target is 0

    MSSP_I2C_Slave_Mode_Configurations@_i2c.MSSP_I2C_Report_Write_Collision	PTR FTN()void  size(2) Largest target is 0

    MSSP_I2C_Slave_Mode_Configurations@_i2c.MSSP_I2C_DefaultInterruptHandler	PTR FTN()void  size(2) Largest target is 0

    MSSP_I2C_Master_Mode_Clock_Configurations@_i2c.MSSP_I2C_Report_Receive_Overflow	PTR FTN()void  size(2) Largest target is 0

    MSSP_I2C_Master_Mode_Clock_Configurations@_i2c.MSSP_I2C_Report_Write_Collision	PTR FTN()void  size(2) Largest target is 0

    MSSP_I2C_Master_Mode_Clock_Configurations@_i2c.MSSP_I2C_DefaultInterruptHandler	PTR FTN()void  size(2) Largest target is 0

    MSSP_I2C_Report_Write_Collision_InterruptHandler	PTR FTN()void  size(2) Largest target is 1
		 -> NULL(), 

    MSSP_I2C_DefaultInterruptHandler	PTR FTN()void  size(2) Largest target is 1
		 -> NULL(), 

    S1796$MSSP_I2C_Report_Receive_Overflow	PTR FTN()void  size(2) Largest target is 0

    MSSP_I2C_Initialize@_i2c.MSSP_I2C_Report_Receive_Overflow	PTR FTN()void  size(2) Largest target is 0

    S1796$MSSP_I2C_Report_Write_Collision	PTR FTN()void  size(2) Largest target is 0

    MSSP_I2C_Initialize@_i2c.MSSP_I2C_Report_Write_Collision	PTR FTN()void  size(2) Largest target is 0

    S1796$MSSP_I2C_DefaultInterruptHandler	PTR FTN()void  size(2) Largest target is 0

    MSSP_I2C_Initialize@_i2c.MSSP_I2C_DefaultInterruptHandler	PTR FTN()void  size(2) Largest target is 0

    gpio_pin_intialize@_pin_config	PTR const struct . size(2) Largest target is 10
		 -> lcd_2.lcd_data(BANK0[8]), lcd_2(BANK0[10]), lcd_1.lcd_data(COMRAM[4]), lcd_1(COMRAM[6]), 
		 -> relay_initialize@pin_obj(COMRAM[1]), led_initialize@pin_obj(COMRAM[1]), 

    gpio_pin_write_logic@_pin_config	PTR const struct . size(2) Largest target is 10
		 -> lcd_2.lcd_data(BANK0[8]), lcd_2(BANK0[10]), lcd_1.lcd_data(COMRAM[4]), lcd_1(COMRAM[6]), 
		 -> relay_turn_off@pin_obj(COMRAM[1]), relay_turn_on@pin_obj(COMRAM[1]), relay_initialize@pin_obj(COMRAM[1]), led_turn_off@pin_obj(COMRAM[1]), 
		 -> led_turn_on@pin_obj(COMRAM[1]), led_initialize@pin_obj(COMRAM[1]), 

    gpio_pin_direction_intialize@_pin_config	PTR const struct . size(2) Largest target is 10
		 -> lcd_2.lcd_data(BANK0[8]), lcd_2(BANK0[10]), lcd_1.lcd_data(COMRAM[4]), lcd_1(COMRAM[6]), 
		 -> relay_initialize@pin_obj(COMRAM[1]), led_initialize@pin_obj(COMRAM[1]), 

    port_registers	PTR volatile unsigned char [5] size(2) Largest target is 1
		 -> PORTE(BITBIGSFRlllll[1]), PORTD(BITBIGSFRlllll[1]), PORTC(BITBIGSFRlllll[1]), PORTB(BITBIGSFRlllll[1]), 
		 -> PORTA(BITBIGSFRlllll[1]), 

    lat_registers	PTR volatile unsigned char [5] size(2) Largest target is 1
		 -> LATE(BITBIGSFRllllh[1]), LATD(BITBIGSFRllllh[1]), LATC(BITBIGSFRllllh[1]), LATB(BITBIGSFRllllh[1]), 
		 -> LATA(BITBIGSFRlllll[1]), 

    tris_registers	PTR volatile unsigned char [5] size(2) Largest target is 1
		 -> TRISD(ABS[1]), TRISC(ABS[1]), TRISB(ABS[1]), TRISE(ABS[1]), 
		 -> TRISA(BITBIGSFRlllll[1]), 

    CCP_Compare_Mode_Config@_ccp_obj.CCP2_InterruptHandler	PTR FTN()void  size(2) Largest target is 0

    CCP_Compare_Mode_Config@_ccp_obj.CCP1_InterruptHandler	PTR FTN()void  size(2) Largest target is 0

    CCP_Capture_Mode_Config@_ccp_obj.CCP2_InterruptHandler	PTR FTN()void  size(2) Largest target is 0

    CCP_Capture_Mode_Config@_ccp_obj.CCP1_InterruptHandler	PTR FTN()void  size(2) Largest target is 0

    CCP_Mode_Timer_Selection@_ccp_obj.CCP2_InterruptHandler	PTR FTN()void  size(2) Largest target is 0

    CCP_Mode_Timer_Selection@_ccp_obj.CCP1_InterruptHandler	PTR FTN()void  size(2) Largest target is 0

    CCP_Interrupt_Config@_ccp_obj.CCP2_InterruptHandler	PTR FTN()void  size(2) Largest target is 0

    CCP_Interrupt_Config@_ccp_obj.CCP1_InterruptHandler	PTR FTN()void  size(2) Largest target is 0

    CCP2_InterruptHandler	PTR FTN()void  size(2) Largest target is 1
		 -> NULL(), 

    CCP1_InterruptHandler	PTR FTN()void  size(2) Largest target is 1
		 -> NULL(), 

    CCP_Set_Compare_Mode_Value@_ccp_obj.CCP2_InterruptHandler	PTR FTN()void  size(2) Largest target is 0

    CCP_Set_Compare_Mode_Value@_ccp_obj.CCP1_InterruptHandler	PTR FTN()void  size(2) Largest target is 0

    CCP_DeInit@_ccp_obj.CCP2_InterruptHandler	PTR FTN()void  size(2) Largest target is 0

    CCP_DeInit@_ccp_obj.CCP1_InterruptHandler	PTR FTN()void  size(2) Largest target is 0

    S1142$CCP2_InterruptHandler	PTR FTN()void  size(2) Largest target is 0

    CCP_Init@_ccp_obj.CCP2_InterruptHandler	PTR FTN()void  size(2) Largest target is 0

    S1142$CCP1_InterruptHandler	PTR FTN()void  size(2) Largest target is 0

    CCP_Init@_ccp_obj.CCP1_InterruptHandler	PTR FTN()void  size(2) Largest target is 0

    configure_voltage_reference@_adc.ADC_InterruptHandler	PTR FTN()void  size(2) Largest target is 0

    select_result_format@_adc.ADC_InterruptHandler	PTR FTN()void  size(2) Largest target is 0

    ADC_GetConversionResult@_adc.ADC_InterruptHandler	PTR FTN()void  size(2) Largest target is 0

    ADC_InterruptHandler	PTR FTN()void  size(2) Largest target is 1
		 -> NULL(), 

    S723$ADC_InterruptHandler	PTR FTN()void  size(2) Largest target is 0

    ADC_Init@_adc.ADC_InterruptHandler	PTR FTN()void  size(2) Largest target is 0

    relay_turn_off@_relay	PTR const struct . size(2) Largest target is 1
		 -> relay_2(COMRAM[1]), relay_1(COMRAM[1]), 

    relay_turn_on@_relay	PTR const struct . size(2) Largest target is 1
		 -> relay_2(COMRAM[1]), relay_1(COMRAM[1]), 

    relay_initialize@_relay	PTR const struct . size(2) Largest target is 1
		 -> relay_2(COMRAM[1]), relay_1(COMRAM[1]), 

    sp__memset	PTR void  size(2) Largest target is 0


Critical Paths under _main in COMRAM

    _relay_turn_on->_gpio_pin_write_logic
    _relay_turn_off->_gpio_pin_write_logic
    _application_intialize->_relay_initialize
    _relay_initialize->_gpio_pin_intialize
    _gpio_pin_intialize->_gpio_pin_write_logic

Critical Paths under _InterruptManager in COMRAM

    _InterruptManager->_RB4_ISR
    _InterruptManager->_RB5_ISR
    _InterruptManager->_RB6_ISR
    _InterruptManager->_RB7_ISR

Critical Paths under _main in BANK0

    None.

Critical Paths under _InterruptManager in BANK0

    None.

Critical Paths under _main in BANK1

    None.

Critical Paths under _InterruptManager in BANK1

    None.

Critical Paths under _main in BANK2

    None.

Critical Paths under _InterruptManager in BANK2

    None.

Critical Paths under _main in BANK3

    None.

Critical Paths under _InterruptManager in BANK3

    None.

Critical Paths under _main in BANK4

    None.

Critical Paths under _InterruptManager in BANK4

    None.

Critical Paths under _main in BANK5

    None.

Critical Paths under _InterruptManager in BANK5

    None.

Critical Paths under _main in BANK6

    None.

Critical Paths under _InterruptManager in BANK6

    None.

Critical Paths under _main in BANK7

    None.

Critical Paths under _InterruptManager in BANK7

    None.

Critical Paths under _main in BANK8

    None.

Critical Paths under _InterruptManager in BANK8

    None.

Critical Paths under _main in BANK9

    None.

Critical Paths under _InterruptManager in BANK9

    None.

Critical Paths under _main in BANK10

    None.

Critical Paths under _InterruptManager in BANK10

    None.

Critical Paths under _main in BANK11

    None.

Critical Paths under _InterruptManager in BANK11

    None.

Critical Paths under _main in BANK12

    None.

Critical Paths under _InterruptManager in BANK12

    None.

Critical Paths under _main in BANK13

    None.

Critical Paths under _InterruptManager in BANK13

    None.

Critical Paths under _main in BANK14

    None.

Critical Paths under _InterruptManager in BANK14

    None.

Critical Paths under _main in BANK15

    None.

Critical Paths under _InterruptManager in BANK15

    None.

Call Graph Tables:

 ---------------------------------------------------------------------------------
 (Depth) Function   	        Calls       Base Space   Used Autos Params    Refs
 ---------------------------------------------------------------------------------
 (0) _main                                                 3     3      0   17498
                                              0 BANK0      2     2      0
              _application_intialize
                     _relay_turn_off
                      _relay_turn_on
 ---------------------------------------------------------------------------------
 (1) _relay_turn_on                                        5     3      2    5187
                                             11 COMRAM     5     3      2
               _gpio_pin_write_logic
 ---------------------------------------------------------------------------------
 (1) _relay_turn_off                                       5     3      2    5187
                                             11 COMRAM     5     3      2
               _gpio_pin_write_logic
 ---------------------------------------------------------------------------------
 (1) _application_intialize                                1     1      0    7109
                   _relay_initialize
 ---------------------------------------------------------------------------------
 (2) _relay_initialize                                     5     3      2    7106
                                             15 COMRAM     5     3      2
                 _gpio_pin_intialize
 ---------------------------------------------------------------------------------
 (3) _gpio_pin_intialize                                   4     2      2    6802
                                             11 COMRAM     4     2      2
       _gpio_pin_direction_intialize
               _gpio_pin_write_logic
 ---------------------------------------------------------------------------------
 (2) _gpio_pin_write_logic                                10     7      3    4891
                                              1 COMRAM    10     7      3
 ---------------------------------------------------------------------------------
 (4) _gpio_pin_direction_intialize                         9     7      2     559
                                              1 COMRAM     9     7      2
 ---------------------------------------------------------------------------------
 Estimated maximum stack depth 4
 ---------------------------------------------------------------------------------
 (Depth) Function   	        Calls       Base Space   Used Autos Params    Refs
 ---------------------------------------------------------------------------------
 (5) _InterruptManager                                     0     0      0     120
                            _ADC_ISR
                           _CCP1_ISR
                           _CCP2_ISR
                           _INT0_ISR
                           _INT1_ISR
                           _INT2_ISR
                    _MSSP_I2C_BC_ISR
                       _MSSP_I2C_ISR
                            _RB4_ISR
                            _RB5_ISR
                            _RB6_ISR
                            _RB7_ISR
                           _TMR0_ISR
                           _TMR1_ISR
                           _TMR2_ISR
                           _TMR3_ISR
                       _USART_RX_ISR
                       _USART_TX_ISR
 ---------------------------------------------------------------------------------
 (6) _USART_TX_ISR                                         0     0      0       0
 ---------------------------------------------------------------------------------
 (6) _USART_RX_ISR                                         0     0      0       0
 ---------------------------------------------------------------------------------
 (6) _TMR3_ISR                                             0     0      0       0
 ---------------------------------------------------------------------------------
 (6) _TMR2_ISR                                             0     0      0       0
 ---------------------------------------------------------------------------------
 (6) _TMR1_ISR                                             0     0      0       0
 ---------------------------------------------------------------------------------
 (6) _TMR0_ISR                                             0     0      0       0
 ---------------------------------------------------------------------------------
 (6) _RB7_ISR                                              1     1      0      30
                                              0 COMRAM     1     1      0
 ---------------------------------------------------------------------------------
 (6) _RB6_ISR                                              1     1      0      30
                                              0 COMRAM     1     1      0
 ---------------------------------------------------------------------------------
 (6) _RB5_ISR                                              1     1      0      30
                                              0 COMRAM     1     1      0
 ---------------------------------------------------------------------------------
 (6) _RB4_ISR                                              1     1      0      30
                                              0 COMRAM     1     1      0
 ---------------------------------------------------------------------------------
 (6) _MSSP_I2C_ISR                                         0     0      0       0
 ---------------------------------------------------------------------------------
 (6) _MSSP_I2C_BC_ISR                                      0     0      0       0
 ---------------------------------------------------------------------------------
 (6) _INT2_ISR                                             0     0      0       0
 ---------------------------------------------------------------------------------
 (6) _INT1_ISR                                             0     0      0       0
 ---------------------------------------------------------------------------------
 (6) _INT0_ISR                                             0     0      0       0
 ---------------------------------------------------------------------------------
 (6) _CCP2_ISR                                             0     0      0       0
 ---------------------------------------------------------------------------------
 (6) _CCP1_ISR                                             0     0      0       0
 ---------------------------------------------------------------------------------
 (6) _ADC_ISR                                              0     0      0       0
 ---------------------------------------------------------------------------------
 Estimated maximum stack depth 6
 ---------------------------------------------------------------------------------

 Call Graph Graphs:

 _main (ROOT)
   _application_intialize
     _relay_initialize
       _gpio_pin_intialize
         _gpio_pin_direction_intialize
         _gpio_pin_write_logic
   _relay_turn_off
     _gpio_pin_write_logic
   _relay_turn_on
     _gpio_pin_write_logic

 _InterruptManager (ROOT)
   _ADC_ISR
   _CCP1_ISR
   _CCP2_ISR
   _INT0_ISR
   _INT1_ISR
   _INT2_ISR
   _MSSP_I2C_BC_ISR
   _MSSP_I2C_ISR
   _RB4_ISR
   _RB5_ISR
   _RB6_ISR
   _RB7_ISR
   _TMR0_ISR
   _TMR1_ISR
   _TMR2_ISR
   _TMR3_ISR
   _USART_RX_ISR
   _USART_TX_ISR

 Address spaces:
Name               Size   Autos  Total    Cost      Usage
BIGRAM             F7F      0       0      48        0.0%
EEDATA             400      0       0       0        0.0%
BITBANK14          100      0       0      32        0.0%
BANK14             100      0       0      33        0.0%
BITBANK13          100      0       0      30        0.0%
BANK13             100      0       0      31        0.0%
BITBANK12          100      0       0      28        0.0%
BANK12             100      0       0      29        0.0%
BITBANK11          100      0       0      26        0.0%
BANK11             100      0       0      27        0.0%
BITBANK10          100      0       0      24        0.0%
BANK10             100      0       0      25        0.0%
BITBANK9           100      0       0      22        0.0%
BANK9              100      0       0      23        0.0%
BITBANK8           100      0       0      20        0.0%
BANK8              100      0       0      21        0.0%
BITBANK7           100      0       0      18        0.0%
BANK7              100      0       0      19        0.0%
BITBANK6           100      0       0      16        0.0%
BANK6              100      0       0      17        0.0%
BITBANK5           100      0       0      14        0.0%
BANK5              100      0       0      15        0.0%
BITBANK4           100      0       0      12        0.0%
BANK4              100      0       0      13        0.0%
BITBANK3           100      0       0      10        0.0%
BANK3              100      0       0      11        0.0%
BITBANK2           100      0       0       8        0.0%
BANK2              100      0       0       9        0.0%
BITBANK1           100      0       0       6        0.0%
BANK1              100      0       0       7        0.0%
BITBANK15           80      0       0      34        0.0%
BANK15              80      0       0      35        0.0%
BITBANK0            80      0       0       4        0.0%
BANK0               80      2      16       5       17.2%
BITCOMRAM           7E      0       0       0        0.0%
COMRAM              7E     14      7C       1       98.4%
BITBIGSFRhlhhhl     18      0       0      37        0.0%
BITBIGSFRhh          D      0       0      36        0.0%
BITBIGSFRlllhh       6      0       0      44        0.0%
BITBIGSFRhlhhhl      5      0       0      38        0.0%
BITBIGSFRllhllh      4      0       0      41        0.0%
BITBIGSFRllllh       4      0       0      45        0.0%
BITBIGSFRllhllh      4      0       0      42        0.0%
BITBIGSFRlllll       4      0       0      46        0.0%
BITBIGSFRllhllh      1      0       0      40        0.0%
BITBIGSFRhlhhhl      1      0       0      39        0.0%
BITBIGSFRllhlll      1      0       0      43        0.0%
BIGSFR               0      0       0     200        0.0%
BITSFR               0      0       0     200        0.0%
SFR                  0      0       0     200        0.0%
STACK                0      0       0       2        0.0%
NULL                 0      0       0       0        0.0%
ABS                  0      0      92      47        0.0%
DATA                 0      0      92       3        0.0%
CODE                 0      0       0       0        0.0%


Microchip Technology PIC18 Macro Assembler V2.41 build 20230208172133 
Symbol Table                                                                                   Sun Jul 23 04:04:07 2023

                               ??_InterruptManager 006A                                        _SSPSTATbits 0FC7  
                              relay_initialize@ret 007B                          _USART_FramingErrorHandler 0009  
                                              l302 178A                                                l320 176A  
                                              l313 16EA                                                l306 17E6  
                                              l316 170A                                                l309 168A  
                                              l713 18C2                                                l673 153E  
                                              l692 166A                          _RB5_InterruptHandler_HIGH 0027  
                                  __end_of_ADC_ISR 1A20                                led_initialize@F3048 0048  
                                              prod 0FF3                              relay_initialize@F3042 0044  
                                              wreg 0FE8                                    __end_of_RB4_ISR 19BC  
                                  __end_of_RB5_ISR 19A2                                    __end_of_RB6_ISR 1988  
                                  __end_of_RB7_ISR 196E  _MSSP_I2C_Report_Receive_Overflow_InterruptHandler 0033  
                                             l1578 1952                                               l5141 168E  
                                             l5143 16C4                                               l5135 166C  
                                             l5161 1744                                               l5153 16EC  
                                             l5145 16C6                                               l5137 1670  
                                             l5171 193A                                               l5163 1746  
                                             l5155 16F0                                               l5147 16D8  
                                             l5139 1682                                               l5173 193A  
                                             l5165 1758                                               l5157 1702  
                                             l5149 16E8                                               l5175 1946  
                                             l5159 170E                                               l5167 1768  
                                             l4811 1540                                               l5701 1652  
                                             l4821 15E2                                               l4813 1544  
                                             l5703 1526                                               l4815 1556  
                                             l4841 1434                                               l4825 163E  
                                             l4817 1578                                               l4843 143C  
                                             l4851 153C                                               l4835 13FC  
                                             l4819 1580                                               l4827 1668  
                                             l4845 149E                                               l4837 1400  
                                             l4861 1858                                               l4839 1412  
                                             l4863 186A                                               l4849 14FA  
                                             l4865 188C                                               l5681 17EC  
                                             l4867 1894                                               l4859 1858  
                                             l5691 1836                                               l5683 17F8  
                                             l4869 18C0                                               l5685 1804  
                                             l5677 17E8                                               l4991 178E  
                                             l5687 181E                                               l5679 17E8  
                                             l4993 17C4                                               l4985 176C  
                                             l5689 182A                                               l4995 17C6  
                                             l4987 1770                                               l4997 17D8  
                                             l4989 1782                                               l4999 17E4  
                                             STR_1 1011                                               _LATA 0F89  
                                             _LATB 0F8A                                               _LATC 0F8B  
                                             u3120 1512                                               u3104 145C  
                                             u3040 1556                                               _LATD 0F8C  
                                             u3121 150C                                               u3105 1458  
                                             u3041 1552                                               _LATE 0F8D  
                                             u3130 1514                                               u3114 14BE  
                                             u3050 1578                                               u3115 14BA  
                                             u3051 1574                                               u3140 186A  
                                             u3141 1866                                               u3150 188C  
                                             u3151 1888                                               u3080 1412  
                                             u3064 15A0                                               u3240 1782  
                                             u3081 140E                                               u3065 159C  
                                             u3241 177E                                               u3090 1434  
                                             u3074 1602                                               u3091 1430  
                                             u3075 15FE                                               u3340 1682  
                                             u3341 167E                                               u3255 17D6  
                                             u3360 1702                                               u3257 17D8  
                                             u3361 16FE                                               u3355 16D6  
                                             u3357 16D8                                               u3375 1756  
                                             u3377 1758                                               u3887 1810  
                                             u3897 1842                                               _TMR2 0FCC  
                          ??_application_intialize 007D                           _RB4_InterruptHandler_LOW 0029  
                                             _main 17E8                                   __end_of_CCP1_ISR 1A1C  
                                 __end_of_CCP2_ISR 1A18                           _RB7_InterruptHandler_LOW 001D  
                                             fsr2h 0FDA                                               indf2 0FDF  
                                             fsr1l 0FE1                                               fsr2l 0FD9  
                                             btemp 007D                                               prodl 0FF3  
                                             start 000E                                       ___param_bank 0000  
                             _gpio_pin_write_logic 1540                                   __end_of_INT0_ISR 1A14  
                                 __end_of_INT1_ISR 1A10                                   __end_of_INT2_ISR 1A0C  
                                            ?_main 0069                                              _EEADR 0FA9  
                                            i2l544 1A16                                              i2l457 1A1E  
                                            i2l539 1A1A                                              i2l933 1A12  
                                            i2l861 1A02                                              i2l943 1A0A  
                                            i2l938 1A0E                                              i2l866 1A06  
                                            i2l954 19BA                                              i2l965 19A0  
                                            i2l976 1986                                              i2l987 196C  
                                            _RCREG 0FAE                                relay_turn_off@F3052 0042  
                                            _TMR0H 0FD7                                              _TMR1H 0FCF  
                                            _TMR0L 0FD6                                              _TMR1L 0FCE  
                                            _TMR3H 0FB3                                              _TMR3L 0FB2  
                                            _SPBRG 0FAF                                              _PORTA 0F80  
                                            _PORTB 0F81                                              _PORTC 0F82  
                                            _PORTD 0F83                                              _PORTE 0F84  
                                            _TRISA 0F92                                              _TRISB 0F93  
                                            _TRISC 0F94                                              _TRISD 0F95  
                                            _TRISE 0F96                                              _TXREG 0FAD  
                                 __end_of_TMR0_ISR 19F4                                   __end_of_TMR1_ISR 19E8  
                                 __end_of_TMR2_ISR 19FC                                   __end_of_TMR3_ISR 19DC  
                           relay_initialize@_relay 0078                                              _lcd_1 0061  
                                            _lcd_2 008A                                relay_turn_on@_relay 0074  
                                            tablat 0FF5                                              ttemp5 007E  
                                            ttemp6 0081                                              ttemp7 0085  
                                            status 0FD8                                              wtemp8 007E  
                                  __initialization 18C4                              __end_of_relay_turn_on 16EC  
                                     __end_of_main 1858                              ?_gpio_pin_write_logic 006A  
                                        ??_ADC_ISR 0069                                      _lat_registers 0049  
                                           ??_main 0094                                      __activetblptr 0003  
                            _TMR3_InterruptHandler 000F                                   led_turn_on@F3053 0047  
                                        ??_RB4_ISR 0069                                          ??_RB5_ISR 0069  
                                        ??_RB6_ISR 0069                                          ??_RB7_ISR 0069  
                                           _ADRESH 0FC4                                             _EEADRH 0FAA  
                                           _ADRESL 0FC3                                             _EEDATA 0FA8  
                                           _CCPR1H 0FBF                                             _CCPR2H 0FBC  
                                           _CCPR1L 0FBE                                             _CCPR2L 0FBB  
                                           _EECON2 0FA7                                             i2l1200 13D8  
                                           i2l1203 13F8                                             i2l1160 1038  
                                           i2l1170 1144                                             i2l1162 1058  
                                           i2l1316 19E6                                             i2l1180 1298  
                                           i2l1172 1188                                             i2l1164 1078  
                                           i2l1413 19DA                                             i2l1246 19F2  
                                           i2l1190 1338                                             i2l1182 12B8  
                                           i2l1174 11CC                                             i2l1166 10BC  
                                           i2l1192 1358                                             i2l1184 12D8  
                                           i2l1176 1210                                             i2l1168 1100  
                                           i2l1194 1378                                             i2l1186 12F8  
                                           i2l1178 1254                                             i2l1196 1398  
                                           i2l1188 1318                                             i2l1198 13B8  
                                           i2l1368 19FA                                             i2l1544 19FE  
                                           i2l1553 1A20                                             i2l4201 1066  
                                           i2l4211 10B2                                             i2l4203 1074  
                                           i2l4301 1326                                             i2l4221 10F6  
                                           i2l4213 10B6                                             i2l4205 1086  
                                           i2l4311 1374                                             i2l4303 1334  
                                           i2l4231 113A                                             i2l4223 10FA  
                                           i2l4215 10CA                                             i2l4207 1094  
                                           i2l2721 1A04                                             i2l4321 13C6  
                                           i2l4313 1386                                             i2l4305 1346  
                                           i2l4241 117E                                             i2l4233 113E  
                                           i2l4225 110E                                             i2l4217 10D8  
                                           i2l4209 10A2                                             i2l2715 1A00  
                                           i2l4323 13D4                                             i2l4315 1394  
                                           i2l4307 1354                                             i2l4251 11C2  
                                           i2l4243 1182                                             i2l4235 1152  
                                           i2l4227 111C                                             i2l4219 10E6  
                                           i2l2733 1A0C                                             i2l4325 13E6  
                                           i2l4317 13A6                                             i2l4309 1366  
                                           i2l4261 1206                                             i2l4253 11C6  
                                           i2l4245 1196                                             i2l4237 1160  
                                           i2l4229 112A                                             i2l2727 1A10  
                                           i2l4327 13F4                                             i2l4319 13B4  
                                           i2l4271 124A                                             i2l4263 120A  
                                           i2l4255 11DA                                             i2l4247 11A4  
                                           i2l4239 116E                                             i2l4191 1018  
                                           i2l2753 19BA                                             i2l2745 19A4  
                                           i2l2761 198C                                             i2l4281 128E  
                                           i2l4273 124E                                             i2l4265 121E  
                                           i2l4257 11E8                                             i2l4249 11B2  
                                           i2l4193 1026                                             i2l2691 1A18  
                                           i2l2739 1A08                                             i2l2747 19A6  
                                           i2l2843 19E8                                             i2l4291 12D4  
                                           i2l4283 1292                                             i2l4275 1262  
                                           i2l4267 122C                                             i2l4259 11F6  
                                           i2l4195 1034                                             i2l2685 1A1C  
                                           i2l2781 1986                                             i2l2773 1970  
                                           i2l2845 19EA                                             i2l2853 19DC  
                                           i2l4293 12E6                                             i2l4285 12A6  
                                           i2l4277 1270                                             i2l4269 123A  
                                           i2l4197 1046                                             i2l2767 19A0  
                                           i2l2759 198A                                             i2l2775 1972  
                                           i2l2847 19EE                                             i2l2855 19DE  
                                           i2l2863 19F4                                             i2l2871 19D2  
                                           i2l4295 12F4                                             i2l4287 12B4  
                                           i2l4279 127E                                             i2l4199 1054  
                                           i2l2697 1A14                                             i2l2857 19E2  
                                           i2l2873 19D6                                             i2l4297 1306  
                                           i2l4289 12C6                                             i2l2795 196C  
                                           i2l2787 1956                                             i2l4299 1314  
                                           i2l2789 1958                                             i2l2869 19D0  
                                           i2l2885 1A20                                             i2l2879 19FC  
                                           _SPBRGH 0FB0                                             _SSPADD 0FC8  
                                           _SSPBUF 0FC9                                             clear_0 190A  
                                   _relay_turn_off 16EC                                             isa$std 0001  
                          relay_initialize@pin_obj 007C            gpio_pin_direction_intialize@_pin_config 006A  
                             relay_turn_off@_relay 0074                                          ?_CCP1_ISR 0069  
                                     __pdataCOMRAM 0049                                          ?_CCP2_ISR 0069  
                                     __mediumconst 0000                                             tblptrh 0FF7  
                                           tblptrl 0FF6                                             tblptru 0FF8  
                             relay_turn_on@pin_obj 0078                                  ?_relay_initialize 0078  
                               ??_relay_initialize 007A                                         __accesstop 0080  
                          __end_of__initialization 1910                                          ?_INT0_ISR 0069  
                                        ?_INT1_ISR 0069                                          ?_INT2_ISR 0069  
                                    ___rparam_used 0001                                  RB5_ISR@RB5_Source 0069  
                           ??_gpio_pin_write_logic 006D                                     __pcstackCOMRAM 0069  
                                     __pidataBANK0 19BC                                          ?_TMR0_ISR 0069  
                                        ?_TMR1_ISR 0069                                          ?_TMR2_ISR 0069  
                                        ?_TMR3_ISR 0069                             __end_of_relay_turn_off 176C  
                                       ??_CCP1_ISR 0069                                         ??_CCP2_ISR 0069  
                            _INT0_InterruptHandler 0031                                         ??_INT0_ISR 0069  
                                       ??_INT1_ISR 0069                                         ??_INT2_ISR 0069  
                    __end_of_application_intialize 1954                    _USART_TxDefaultInterruptHandler 000D  
                                       ??_TMR0_ISR 0069                                         ??_TMR1_ISR 0069  
                                       ??_TMR2_ISR 0069                                         ??_TMR3_ISR 0069  
                                led_turn_off@F3058 0046                                    ?_relay_turn_off 0074  
                                          _ADC_ISR 1A1C                                  RB7_ISR@RB7_Source 0069  
                                          _RB4_ISR 19A2                                            _RB5_ISR 1988  
                                          _RB6_ISR 196E                                            _RB7_ISR 1954  
                        _RB6_InterruptHandler_HIGH 0023                                      ?_MSSP_I2C_ISR 0069  
                             led_turn_toggle@F3063 0045                                            i2u45_40 19B6  
                                          i2u45_41 19B2                                            i2u46_40 199C  
                                          i2u46_41 1998                                            i2u47_40 1982  
                                          i2u47_41 197E                                            i2u48_40 1968  
                                          i2u48_41 1964                                         _btn_values 1001  
                                   _tris_registers 0053                           _RB6_InterruptHandler_LOW 0021  
                                ??_MSSP_I2C_BC_ISR 0069                               _ADC_InterruptHandler 003F  
                                          __Hparam 0000                                            __Lparam 0000  
                                     __psmallconst 1000                         __end_of_gpio_pin_intialize 18C4  
                                          __pcinit 18C4                                            __ramtop 1000  
                                          __ptext0 17E8                                            __ptext1 166C  
                                          __ptext2 16EC                                            __ptext3 193A  
                                          __ptext4 176C                                            __ptext5 1858  
                                          __ptext6 1540                                            __ptext7 13FC  
                                          __ptext9 19FC                                          _T0CONbits 0FD5  
                                        _T1CONbits 0FCD                                     ??_MSSP_I2C_ISR 0069  
                                        _T2CONbits 0FCA                                          _T3CONbits 0FB1  
                                          _relay_1 0068                                            _relay_2 0067  
                                   __pintcode_body 1016                               end_of_initialization 1910  
                                          int_func 1016                              gpio_pin_intialize@ret 0077  
                            relay_turn_off@pin_obj 0078                                          _RCSTAbits 0FAB  
                                          postdec1 0FE5                                            postdec2 0FDD  
                                          postinc0 0FEE                                            postinc2 0FDE  
                            _INT1_InterruptHandler 002F                                          _PORTBbits 0F81  
                                 _InterruptManager 0008                      gpio_pin_intialize@_pin_config 0074  
             __end_of_gpio_pin_direction_intialize 1540                       _gpio_pin_direction_intialize 13FC  
                                        _TRISCbits 0F94                                      ?_USART_RX_ISR 0069  
                                    ?_USART_TX_ISR 0069                                        _CCP1CONbits 0FBD  
                                      _CCP2CONbits 0FBA                                          _TXSTAbits 0FAC  
                               relay_turn_on@F3047 0043                      convert_uint16_to_string@F3198 0001  
                                      _BAUDCONbits 0FB8                                      __pidataCOMRAM 191A  
                                   _timer0_preload 001B                                     _timer1_preload 0017  
                                   _timer2_preload 0041                                start_initialization 18C4  
                                   _timer3_preload 0011                      ?_gpio_pin_direction_intialize 006A  
                                   ??_USART_RX_ISR 0069                                     ??_USART_TX_ISR 0069  
                        _USART_OverrunErrorHandler 0007                                   ??_relay_turn_off 0076  
                             __end_of_MSSP_I2C_ISR 1A04                                      _relay_turn_on 166C  
                                      __pdataBANK0 0080                                           ?_ADC_ISR 0069  
                                         ?_RB4_ISR 0069                                           ?_RB5_ISR 0069  
                                         ?_RB6_ISR 0069                                           ?_RB7_ISR 0069  
                                      __pbssCOMRAM 0001   _MSSP_I2C_Report_Write_Collision_InterruptHandler 0035  
                                    __pcstackBANK0 0094                                    _MSSP_I2C_BC_ISR 1A04  
                            _INT2_InterruptHandler 002D                    _USART_RxDefaultInterruptHandler 000B  
                  gpio_pin_direction_intialize@ret 0072                              _TMR0_InterruptHandler 0019  
                            _application_intialize 193A                                          __pintcode 0008  
                                   ?_relay_turn_on 0074                    gpio_pin_write_logic@_pin_config 006A  
                        gpio_pin_write_logic@logic 006C                                        __smallconst 1000  
                        _RB4_InterruptHandler_HIGH 002B                                           _CCP1_ISR 1A18  
                                         _CCP2_ISR 1A14                          _RB7_InterruptHandler_HIGH 001F  
                               _gpio_pin_intialize 1858                     ??_gpio_pin_direction_intialize 006C  
                         _RB5_InterruptHandler_LOW 0025                                           _INT0_ISR 1A10  
                                         _INT1_ISR 1A0C                                           _INT2_ISR 1A08  
                                         _RB4_Flag 0060                                           _RB5_Flag 005F  
                                         _RB6_Flag 005E                                           _RB7_Flag 005D  
                                RB4_ISR@RB4_Source 0069                                ?_gpio_pin_intialize 0074  
                         __end_of_InterruptManager 13FC                                           _PIE1bits 0F9D  
                                         _PIE2bits 0FA0                                           i2u200_40 1094  
                                         i2u200_41 1090                                           i2u201_40 10A2  
                                         i2u201_41 109E                                           i2u210_40 113A  
                                         i2u202_40 10B2                                           i2u210_41 1136  
                                         i2u202_41 10AE                                           i2u211_40 1152  
                                         i2u203_40 10CA                                           i2u211_41 114E  
                                         i2u203_41 10C6                                           i2u220_40 11E8  
                                         i2u212_40 1160                                           i2u204_40 10D8  
                                         i2u220_41 11E4                                           i2u212_41 115C  
                                         i2u204_41 10D4                                           i2u221_40 11F6  
                                         i2u213_40 116E                                           i2u205_40 10E6  
                                         i2u221_41 11F2                                           i2u213_41 116A  
                                         i2u205_41 10E2                                           i2u230_40 128E  
                                         i2u222_40 1206                                           i2u214_40 117E  
                                         i2u206_40 10F6                                           i2u230_41 128A  
                                         i2u222_41 1202                                           i2u214_41 117A  
                                         i2u206_41 10F2                                           i2u231_40 12A6  
                                         i2u223_40 121E                                           i2u215_40 1196  
                                         i2u207_40 110E                                           i2u231_41 12A2  
                                         i2u223_41 121A                                           i2u215_41 1192  
                                         i2u207_41 110A                                           i2u240_40 1334  
                                         i2u232_40 12B4                                           i2u224_40 122C  
                                         i2u216_40 11A4                                           i2u208_40 111C  
                                         i2u240_41 1330                                           i2u232_41 12B0  
                                         i2u224_41 1228                                           i2u216_41 11A0  
                                         i2u208_41 1118                                           i2u241_40 1346  
                                         i2u233_40 12C6                                           i2u225_40 123A  
                                         i2u217_40 11B2                                           i2u209_40 112A  
                                         i2u241_41 1342                                           i2u233_41 12C2  
                                         i2u225_41 1236                                           i2u217_41 11AE  
                                         i2u209_41 1126                                           i2u250_40 13D4  
                                         i2u242_40 1354                                           i2u234_40 12D4  
                                         i2u226_40 124A                                           i2u218_40 11C2  
                                         i2u250_41 13D0                                           i2u242_41 1350  
                                         i2u234_41 12D0                                           i2u226_41 1246  
                                         i2u218_41 11BE                                           i2u251_40 13E6  
                                         i2u243_40 1366                                           i2u235_40 12E6  
                                         i2u227_40 1262                                           i2u219_40 11DA  
                                         i2u251_41 13E2                                           i2u243_41 1362  
                                         i2u235_41 12E2                                           i2u227_41 125E  
                                         i2u219_41 11D6                                           i2u252_40 13F4  
                                         i2u244_40 1374                                           i2u236_40 12F4  
                                         i2u228_40 1270                                           i2u252_41 13F0  
                                         i2u244_41 1370                                           i2u236_41 12F0  
                                         i2u228_41 126C                                           i2u245_40 1386  
                                         i2u237_40 1306                                           i2u229_40 127E  
                                         i2u245_41 1382                                           i2u237_41 1302  
                                         i2u229_41 127A                                           i2u246_40 1394  
                                         i2u238_40 1314                                           i2u246_41 1390  
                                         i2u238_41 1310                                           i2u247_40 13A6  
                                         i2u239_40 1326                                           i2u247_41 13A2  
                                         i2u239_41 1322                                           i2u248_40 13B4  
                                         i2u248_41 13B0                                           i2u249_40 13C6  
                                         i2u193_40 1026                                           i2u249_41 13C2  
                                         i2u193_41 1022                                           _PIR1bits 0F9E  
                                         i2u194_40 1034                                           i2u194_41 1030  
                                         i2u195_40 1046                                           i2u195_41 1042  
                                         _PIR2bits 0FA1                                           i2u196_40 1054  
                                         i2u196_41 1050                                           i2u197_40 1066  
                                         i2u197_41 1062                                           i2u198_40 1074  
                                         i2u198_41 1070                                           i2u199_40 1086  
                                         i2u199_41 1082                                   _relay_initialize 176C  
                                         _TMR0_ISR 19E8                                           _TMR1_ISR 19DC  
                                         _TMR2_ISR 19F4                                           _TMR3_ISR 19D0  
                             __end_of_USART_RX_ISR 1A22                               __end_of_USART_TX_ISR 1A00  
                                       _ADCON0bits 0FC2                                         _ADCON1bits 0FC1  
                                       _ADCON2bits 0FC0                            __end_of_MSSP_I2C_BC_ISR 1A08  
                             ??_gpio_pin_intialize 0076                   _MSSP_I2C_DefaultInterruptHandler 0037  
                          gpio_pin_write_logic@ret 0073                                        _INTCON2bits 0FF1  
                                      _INTCON3bits 0FF0                                          copy_data0 18D8  
                                        copy_data1 18F8                                  relay_turn_off@ret 0077  
                                       _EECON1bits 0FA6                             ?_application_intialize 0069  
                                         __Hrparam 0000                                    ??_relay_turn_on 0076  
                                         __Lrparam 0000                                  RB6_ISR@RB6_Source 0069  
                            _CCP1_InterruptHandler 003D                                 __end_of_btn_values 1011  
                            _TMR1_InterruptHandler 0015                                       _MSSP_I2C_ISR 1A00  
                                         __ptext10 1A20                                           __ptext11 19D0  
                                         __ptext20 1A04                                           __ptext12 19F4  
                                         __ptext21 1A08                                           __ptext13 19DC  
                                         __ptext22 1A0C                                           __ptext14 19E8  
                                         __ptext23 1A10                                           __ptext15 1954  
                                         __ptext24 1A14                                           __ptext16 196E  
                                         __ptext25 1A18                                           __ptext17 1988  
                                         __ptext26 1A1C                                           __ptext18 19A2  
                                         __ptext19 1A00                                           isa$xinst 0000  
                                         int$flags 007D                                   relay_turn_on@ret 0077  
                                 ?_MSSP_I2C_BC_ISR 0069                                         _INTCONbits 0FF2  
                     __end_of_gpio_pin_write_logic 166C                                           intlevel2 0000  
                                   _port_registers 0080                           __end_of_relay_initialize 17E8  
                                      _SSPCON1bits 0FC6                                        _SSPCON2bits 0FC5  
                  CCP_Set_Compare_Mode_Value@F3106 0039                              _CCP2_InterruptHandler 003B  
                                     _USART_RX_ISR 1A20                                       _USART_TX_ISR 19FC  
                            _TMR2_InterruptHandler 0013                                  ?_InterruptManager 0069  
